ccopy_reg
_reconstructor
p0
(csklearn.pipeline
Pipeline
p1
c__builtin__
object
p2
Ntp3
Rp4
(dp5
S'steps'
p6
(lp7
(S'features'
p8
g0
(csklearn.pipeline
FeatureUnion
p9
g2
Ntp10
Rp11
(dp12
S'transformer_weights'
p13
NsS'n_jobs'
p14
I1
sS'transformer_list'
p15
(lp16
(S'scale'
p17
g0
(csklearn.preprocessing.data
MinMaxScaler
p18
g2
Ntp19
Rp20
(dp21
S'copy'
p22
I01
sS'feature_range'
p23
(I0
I1
tp24
sbtp25
asbtp26
a(S'classify'
p27
g0
(csklearn.ensemble.forest
RandomForestClassifier
p28
g2
Ntp29
Rp30
(dp31
S'warm_start'
p32
I00
sS'base_estimator'
p33
g0
(csklearn.tree.tree
DecisionTreeClassifier
p34
g2
Ntp35
Rp36
(dp37
S'presort'
p38
I00
sS'splitter'
p39
S'best'
p40
sS'tree_'
p41
NsS'n_features_'
p42
NsS'n_outputs_'
p43
NsS'n_classes_'
p44
NsS'random_state'
p45
NsS'classes_'
p46
NsS'max_features_'
p47
NsS'min_samples_leaf'
p48
I1
sS'max_features'
p49
NsS'min_weight_fraction_leaf'
p50
F0.0
sS'criterion'
p51
S'gini'
p52
sS'max_leaf_nodes'
p53
NsS'min_samples_split'
p54
I2
sS'max_depth'
p55
NsS'class_weight'
p56
NsbsS'estimators_'
p57
(lp58
sg14
I1
sS'verbose'
p59
I0
sg45
I10
sS'bootstrap'
p60
I01
sS'oob_score'
p61
I00
sg48
I1
sS'n_estimators'
p62
I15
sg49
S'auto'
p63
sS'estimator_params'
p64
(S'criterion'
p65
S'max_depth'
p66
S'min_samples_split'
p67
S'min_samples_leaf'
p68
S'min_weight_fraction_leaf'
p69
S'max_features'
p70
S'max_leaf_nodes'
p71
S'random_state'
p72
tp73
sg51
S'entropy'
p74
sg50
F0.0
sg53
Nsg54
I5
sg55
I2
sg56
S'balanced'
p75
sbtp76
asb.