(dp0
S'METTS MARK'
p1
(dp2
S'to_messages'
p3
I807
sS'deferral_payments'
p4
S'NaN'
p5
sS'expenses'
p6
I94299
sS'deferral_payments_fraction_from_payments'
p7
I0
sS'director_fees_fraction_from_stock'
p8
I0
sS'poi'
p9
I00
sS'deferred_income'
p10
g5
sS'email_address'
p11
S'mark.metts@enron.com'
p12
sS'long_term_incentive'
p13
g5
sS'deferred_income_fraction_from_payments'
p14
I0
sS'director_fees_fraction_from_payments'
p15
I0
sS'other_fraction_from_payments'
p16
I0
sS'restricted_stock_deferred'
p17
g5
sS'shared_receipt_with_poi'
p18
I702
sS'loan_advances'
p19
g5
sS'from_messages'
p20
I29
sS'other'
p21
I1740
sS'director_fees'
p22
g5
sS'salary_fraction_from_payments'
p23
I0
sS'bonus'
p24
I600000
sS'total_stock_value'
p25
I585062
sS'from_poi_to_this_person'
p26
I38
sS'stock_fraction_from_compensation'
p27
F0.35525284339138824
sS'from_this_person_to_poi'
p28
I1
sS'restricted_stock'
p29
I585062
sS'fraction_from_this_person_to_poi'
p30
F0.034482758620689655
sS'loan_advances_fraction_from_payments'
p31
I0
sS'long_term_incentive_fraction_from_payments'
p32
I0
sS'salary'
p33
I365788
sS'total_payments'
p34
I1061827
sS'payments_fraction_from_compensation'
p35
F0.6447471566086117
sS'bonus_fraction_from_payments'
p36
I0
sS'exercised_stock_options'
p37
g5
sS'expenses_fraction_from_payments'
p38
I0
sS'fraction_from_poi_to_this_person'
p39
F0.04708798017348203
ssS'BAXTER JOHN C'
p40
(dp41
g3
g5
sg4
I1295738
sg6
I11200
sS'deferral_payments_fraction_from_payments'
p42
F0.18456759858913982
sS'director_fees_fraction_from_stock'
p43
I0
sg9
I00
sg10
I-1386055
sg11
g5
sg13
I1586055
sS'deferred_income_fraction_from_payments'
p44
F-0.19743253872501246
sS'director_fees_fraction_from_payments'
p45
I0
sS'other_fraction_from_payments'
p46
F0.3789390573013097
sg17
g5
sg18
g5
sg19
g5
sg20
g5
sg21
I2660303
sg22
g5
sS'salary_fraction_from_payments'
p47
F0.03804656089298641
sg24
I1200000
sg25
I10623258
sg26
g5
sg27
F0.6534333079031771
sg28
g5
sg29
I3942714
sg30
I0
sS'loan_advances_fraction_from_payments'
p48
I0
sS'long_term_incentive_fraction_from_payments'
p49
F0.22592095205998292
sg33
I267102
sg34
I5634343
sg35
F0.3465666920968229
sS'bonus_fraction_from_payments'
p50
F0.1709304800098228
sg37
I6680544
sS'expenses_fraction_from_payments'
p51
F0.0015953511467583462
sg39
I0
ssS'ELLIOTT STEVEN'
p52
(dp53
g3
g5
sg4
g5
sg6
I78552
sS'deferral_payments_fraction_from_payments'
p54
I0
sS'director_fees_fraction_from_stock'
p55
I0
sg9
I00
sg10
I-400729
sg11
S'steven.elliott@enron.com'
p56
sg13
g5
sS'deferred_income_fraction_from_payments'
p57
F-0.6543005678793836
sS'director_fees_fraction_from_payments'
p58
I0
sS'other_fraction_from_payments'
p59
F0.02116240566638474
sg17
g5
sg18
g5
sg19
g5
sg20
g5
sg21
I12961
sg22
g5
sS'salary_fraction_from_payments'
p60
F0.27910830854235585
sg24
I350000
sg25
I6678735
sg26
g5
sg27
F0.9692727336055939
sg28
g5
sg29
I1788391
sg30
I0
sS'loan_advances_fraction_from_payments'
p61
I0
sS'long_term_incentive_fraction_from_payments'
p62
I0
sg33
I170941
sg34
I211725
sg35
F0.030727266394406177
sS'bonus_fraction_from_payments'
p63
F0.5714714901037465
sg37
I4890344
sS'expenses_fraction_from_payments'
p64
F0.12825779568751286
sg39
I0
ssS'CORDES WILLIAM R'
p65
(dp66
g3
I764
sg4
g5
sg6
g5
sS'deferral_payments_fraction_from_payments'
p67
I0
sS'director_fees_fraction_from_stock'
p68
I0
sg9
I00
sg10
g5
sg11
S'bill.cordes@enron.com'
p69
sg13
g5
sS'deferred_income_fraction_from_payments'
p70
I0
sS'director_fees_fraction_from_payments'
p71
I0
sS'other_fraction_from_payments'
p72
I0
sg17
g5
sg18
I58
sg19
g5
sg20
I12
sg21
g5
sg22
g5
sS'salary_fraction_from_payments'
p73
I0
sg24
g5
sg25
I1038185
sg26
I10
sg27
I0
sg28
I0
sg29
I386335
sg30
F0.0
sS'loan_advances_fraction_from_payments'
p74
I0
sS'long_term_incentive_fraction_from_payments'
p75
I0
sg33
g5
sg34
g5
sg35
I0
sS'bonus_fraction_from_payments'
p76
I0
sg37
I651850
sS'expenses_fraction_from_payments'
p77
I0
sg39
F0.013089005235602094
ssS'HANNON KEVIN P'
p78
(dp79
g3
I1045
sg4
g5
sg6
I34039
sS'deferral_payments_fraction_from_payments'
p80
I0
sS'director_fees_fraction_from_stock'
p81
I0
sg9
I01
sg10
I-3117011
sg11
S'kevin.hannon@enron.com'
p82
sg13
I1617011
sS'deferred_income_fraction_from_payments'
p83
F-0.9152354601545118
sS'director_fees_fraction_from_payments'
p84
I0
sS'other_fraction_from_payments'
p85
F0.0033326550572820276
sg17
g5
sg18
I1035
sg19
g5
sg20
I32
sg21
I11350
sg22
g5
sS'salary_fraction_from_payments'
p86
F0.07143714950231862
sg24
I1500000
sg25
I6391065
sg26
I32
sg27
F0.95678249490587
sg28
I21
sg29
I853064
sg30
F0.65625
sS'loan_advances_fraction_from_payments'
p87
I0
sS'long_term_incentive_fraction_from_payments'
p88
F0.4747964658000589
sg33
I243293
sg34
I288682
sg35
F0.04321750509413006
sS'bonus_fraction_from_payments'
p89
F0.440438994354453
sg37
I5538001
sS'expenses_fraction_from_payments'
p90
F0.009994735285887483
sg39
F0.03062200956937799
ssS'MORDAUNT KRISTINA M'
p91
(dp92
g3
g5
sg4
g5
sg6
I35018
sS'deferral_payments_fraction_from_payments'
p93
I0
sS'director_fees_fraction_from_stock'
p94
I0
sg9
I00
sg10
g5
sg11
S'kristina.mordaunt@enron.com'
p95
sg13
g5
sS'deferred_income_fraction_from_payments'
p96
I0
sS'director_fees_fraction_from_payments'
p97
I0
sS'other_fraction_from_payments'
p98
I0
sg17
g5
sg18
g5
sg19
g5
sg20
g5
sg21
I1411
sg22
g5
sS'salary_fraction_from_payments'
p99
I0
sg24
I325000
sg25
I208510
sg26
g5
sg27
F0.24910636630379723
sg28
g5
sg29
I208510
sg30
I0
sS'loan_advances_fraction_from_payments'
p100
I0
sS'long_term_incentive_fraction_from_payments'
p101
I0
sg33
I267093
sg34
I628522
sg35
F0.7508936336962028
sS'bonus_fraction_from_payments'
p102
I0
sg37
g5
sS'expenses_fraction_from_payments'
p103
I0
sg39
I0
ssS'MEYER ROCKFORD G'
p104
(dp105
g3
I232
sg4
I1848227
sg6
g5
sS'deferral_payments_fraction_from_payments'
p106
I0
sS'director_fees_fraction_from_stock'
p107
I0
sg9
I00
sg10
g5
sg11
S'rockford.meyer@enron.com'
p108
sg13
g5
sS'deferred_income_fraction_from_payments'
p109
I0
sS'director_fees_fraction_from_payments'
p110
I0
sS'other_fraction_from_payments'
p111
I0
sg17
g5
sg18
I22
sg19
g5
sg20
I28
sg21
g5
sg22
g5
sS'salary_fraction_from_payments'
p112
I0
sg24
g5
sg25
I955873
sg26
I0
sg27
F0.34088406262258836
sg28
I0
sg29
I462384
sg30
F0.0
sS'loan_advances_fraction_from_payments'
p113
I0
sS'long_term_incentive_fraction_from_payments'
p114
I0
sg33
g5
sg34
I1848227
sg35
F0.6591159373774117
sS'bonus_fraction_from_payments'
p115
I0
sg37
I493489
sS'expenses_fraction_from_payments'
p116
I0
sg39
F0.0
ssS'MCMAHON JEFFREY'
p117
(dp118
g3
I2355
sg4
g5
sg6
I137108
sS'deferral_payments_fraction_from_payments'
p119
I0
sS'director_fees_fraction_from_stock'
p120
I0
sg9
I00
sg10
g5
sg11
S'jeffrey.mcmahon@enron.com'
p121
sg13
I694862
sS'deferred_income_fraction_from_payments'
p122
I0
sS'director_fees_fraction_from_payments'
p123
I0
sS'other_fraction_from_payments'
p124
I0
sg17
g5
sg18
I2228
sg19
g5
sg20
I48
sg21
I297353
sg22
g5
sS'salary_fraction_from_payments'
p125
I0
sg24
I2600000
sg25
I1662855
sg26
I58
sg27
F0.2885585495223879
sg28
I26
sg29
I558801
sg30
F0.5416666666666666
sS'loan_advances_fraction_from_payments'
p126
I0
sS'long_term_incentive_fraction_from_payments'
p127
I0
sg33
I370448
sg34
I4099771
sg35
F0.7114414504776121
sS'bonus_fraction_from_payments'
p128
I0
sg37
I1104054
sS'expenses_fraction_from_payments'
p129
I0
sg39
F0.024628450106157114
ssS'HORTON STANLEY C'
p130
(dp131
g3
I2350
sg4
I3131860
sg6
g5
sS'deferral_payments_fraction_from_payments'
p132
I0
sS'director_fees_fraction_from_stock'
p133
I0
sg9
I00
sg10
g5
sg11
S'stanley.horton@enron.com'
p134
sg13
g5
sS'deferred_income_fraction_from_payments'
p135
I0
sS'director_fees_fraction_from_payments'
p136
I0
sS'other_fraction_from_payments'
p137
I0
sg17
g5
sg18
I1074
sg19
g5
sg20
I1073
sg21
g5
sg22
g5
sS'salary_fraction_from_payments'
p138
I0
sg24
g5
sg25
I7256648
sg26
I44
sg27
F0.6985264871529193
sg28
I15
sg29
I2046079
sg30
F0.013979496738117428
sS'loan_advances_fraction_from_payments'
p139
I0
sS'long_term_incentive_fraction_from_payments'
p140
I0
sg33
g5
sg34
I3131860
sg35
F0.3014735128470806
sS'bonus_fraction_from_payments'
p141
I0
sg37
I5210569
sS'expenses_fraction_from_payments'
p142
I0
sg39
F0.01872340425531915
ssS'PIPER GREGORY F'
p143
(dp144
g3
I1238
sg4
I1130036
sS'exercised_stock_options_fraction_from_stock'
p145
F0.68247788104608
sg6
I43057
sS'deferral_payments_fraction_from_payments'
p146
F0.6380916134846485
sg9
I00
sg10
I-33333
sg11
S'greg.piper@enron.com'
p147
sg13
g5
sS'deferred_income_fraction_from_payments'
p148
F-0.018821973594012744
sS'director_fees_fraction_from_payments'
p149
I0
sS'other_fraction_from_payments'
p150
F0.00043930925677682526
sS'restricted_stock_deferred_fraction_from_stock'
p151
F-0.31752211895392
sg17
I-409554
sg18
I742
sg19
g5
sg20
I222
sg21
I778
sg22
g5
sS'salary_fraction_from_payments'
p152
F0.1112903608321353
sg24
I400000
sg25
I880290
sg26
I61
sg27
F0.3362556289938688
sg28
I48
sS'restricted_stock_fraction_from_stock'
p153
F0.31752211895392
sg29
I409554
sg30
F0.21621621621621623
sS'loan_advances_fraction_from_payments'
p154
I0
sS'long_term_incentive_fraction_from_payments'
p155
I0
sg33
I197091
sg34
I1737629
sg35
F0.6637443710061312
sS'bonus_fraction_from_payments'
p156
F0.22586594178757083
sg37
I880290
sS'expenses_fraction_from_payments'
p157
F0.024312774638868592
sg39
F0.049273021001615507
ssS'HUMPHREY GENE E'
p158
(dp159
g3
I128
sg4
I2964506
sg6
I4994
sS'deferral_payments_fraction_from_payments'
p160
I0
sS'director_fees_fraction_from_stock'
p161
I0
sg9
I00
sg10
g5
sg11
S'gene.humphrey@enron.com'
p162
sg13
g5
sS'deferred_income_fraction_from_payments'
p163
I0
sS'director_fees_fraction_from_payments'
p164
I0
sS'other_fraction_from_payments'
p165
I0
sg17
g5
sg18
I119
sg19
g5
sg20
I17
sg21
g5
sg22
g5
sS'salary_fraction_from_payments'
p166
I0
sg24
g5
sg25
I2282768
sg26
I10
sg27
F0.4240704797629274
sg28
I17
sg29
g5
sg30
F1.0
sS'loan_advances_fraction_from_payments'
p167
I0
sS'long_term_incentive_fraction_from_payments'
p168
I0
sg33
I130724
sg34
I3100224
sg35
F0.5759295202370727
sS'bonus_fraction_from_payments'
p169
I0
sg37
I2282768
sS'expenses_fraction_from_payments'
p170
I0
sg39
F0.078125
ssS'UMANOFF ADAM S'
p171
(dp172
g3
I111
sg4
g5
sg6
I53122
sS'deferral_payments_fraction_from_payments'
p173
I0
sS'director_fees_fraction_from_stock'
p174
I0
sg9
I00
sg10
g5
sg11
S'adam.umanoff@enron.com'
p175
sg13
g5
sS'deferred_income_fraction_from_payments'
p176
I0
sS'director_fees_fraction_from_payments'
p177
I0
sS'other_fraction_from_payments'
p178
I0
sg17
g5
sg18
I41
sg19
g5
sg20
I18
sg21
g5
sg22
g5
sS'salary_fraction_from_payments'
p179
I0
sg24
I788750
sg25
g5
sg26
I12
sg27
I0
sg28
I0
sg29
g5
sg30
F0.0
sS'loan_advances_fraction_from_payments'
p180
I0
sS'long_term_incentive_fraction_from_payments'
p181
I0
sg33
I288589
sg34
I1130461
sg35
I0
sS'bonus_fraction_from_payments'
p182
I0
sg37
g5
sS'expenses_fraction_from_payments'
p183
I0
sg39
F0.10810810810810811
ssS'BLACHMAN JEREMY M'
p184
(dp185
g3
I2475
sg4
g5
sg6
I84208
sS'deferral_payments_fraction_from_payments'
p186
I0
sS'director_fees_fraction_from_stock'
p187
I0
sg9
I00
sg10
g5
sg11
S'jeremy.blachman@enron.com'
p188
sg13
I831809
sS'deferred_income_fraction_from_payments'
p189
I0
sS'director_fees_fraction_from_payments'
p190
I0
sS'other_fraction_from_payments'
p191
I0
sg17
g5
sg18
I2326
sg19
g5
sg20
I14
sg21
I272
sg22
g5
sS'salary_fraction_from_payments'
p192
I0
sg24
I850000
sg25
I954354
sg26
I25
sg27
F0.3214190811026176
sg28
I2
sg29
I189041
sg30
F0.14285714285714285
sS'loan_advances_fraction_from_payments'
p193
I0
sS'long_term_incentive_fraction_from_payments'
p194
I0
sg33
I248546
sg34
I2014835
sg35
F0.6785809188973824
sS'bonus_fraction_from_payments'
p195
I0
sg37
I765313
sS'expenses_fraction_from_payments'
p196
I0
sg39
F0.010101010101010102
ssS'SUNDE MARTIN'
p197
(dp198
g3
I2647
sg4
g5
sg6
g5
sS'deferral_payments_fraction_from_payments'
p199
I0
sS'director_fees_fraction_from_stock'
p200
I0
sg9
I00
sg10
g5
sg11
S'marty.sunde@enron.com'
p201
sg13
I476451
sS'deferred_income_fraction_from_payments'
p202
I0
sS'director_fees_fraction_from_payments'
p203
I0
sS'other_fraction_from_payments'
p204
I0
sg17
g5
sg18
I2565
sg19
g5
sg20
I38
sg21
I111122
sg22
g5
sS'salary_fraction_from_payments'
p205
I0
sg24
I700000
sg25
I698920
sg26
I37
sg27
F0.3114645903549008
sg28
I13
sg29
I698920
sg30
F0.34210526315789475
sS'loan_advances_fraction_from_payments'
p206
I0
sS'long_term_incentive_fraction_from_payments'
p207
I0
sg33
I257486
sg34
I1545059
sg35
F0.6885354096450992
sS'bonus_fraction_from_payments'
p208
I0
sg37
g5
sS'expenses_fraction_from_payments'
p209
I0
sg39
F0.013978088401964487
ssS'GIBBS DANA R'
p210
(dp211
g3
I169
sg4
I504610
sg6
g5
sS'deferral_payments_fraction_from_payments'
p212
I0
sS'director_fees_fraction_from_stock'
p213
I0
sg9
I00
sg10
g5
sg11
S'dana.gibbs@enron.com'
p214
sg13
I461912
sS'deferred_income_fraction_from_payments'
p215
I0
sS'director_fees_fraction_from_payments'
p216
I0
sS'other_fraction_from_payments'
p217
I0
sg17
g5
sg18
I23
sg19
g5
sg20
I12
sg21
g5
sg22
g5
sS'salary_fraction_from_payments'
p218
I0
sg24
g5
sg25
I2218275
sg26
I0
sg27
F0.6965200607762442
sg28
I0
sg29
g5
sg30
F0.0
sS'loan_advances_fraction_from_payments'
p219
I0
sS'long_term_incentive_fraction_from_payments'
p220
I0
sg33
g5
sg34
I966522
sg35
F0.3034799392237559
sS'bonus_fraction_from_payments'
p221
I0
sg37
I2218275
sS'expenses_fraction_from_payments'
p222
I0
sg39
F0.0
ssS'LOWRY CHARLES P'
p223
(dp224
g3
g5
sg4
g5
sS'exercised_stock_options_fraction_from_stock'
p225
F0.7077607336881597
sg6
g5
sS'deferral_payments_fraction_from_payments'
p226
I0
sg9
I00
sg10
g5
sg11
g5
sg13
g5
sS'deferred_income_fraction_from_payments'
p227
I0
sS'director_fees_fraction_from_payments'
p228
I0
sS'other_fraction_from_payments'
p229
I0
sS'restricted_stock_deferred_fraction_from_stock'
p230
F-0.2922392663118403
sg17
I-153686
sg18
g5
sg19
g5
sg20
g5
sg21
g5
sg22
g5
sS'salary_fraction_from_payments'
p231
I0
sg24
g5
sg25
I372205
sg26
g5
sg27
I0
sg28
g5
sS'restricted_stock_fraction_from_stock'
p232
F0.2922392663118403
sg29
I153686
sg30
I0
sS'loan_advances_fraction_from_payments'
p233
I0
sS'long_term_incentive_fraction_from_payments'
p234
I0
sg33
g5
sg34
g5
sg35
I0
sS'bonus_fraction_from_payments'
p235
I0
sg37
I372205
sS'expenses_fraction_from_payments'
p236
I0
sg39
I0
ssS'COLWELL WESLEY'
p237
(dp238
g3
I1758
sg4
I27610
sg6
I16514
sS'deferral_payments_fraction_from_payments'
p239
F0.016892987421729976
sS'director_fees_fraction_from_stock'
p240
I0
sg9
I01
sg10
I-144062
sg11
S'wes.colwell@enron.com'
p241
sg13
g5
sS'deferred_income_fraction_from_payments'
p242
F-0.08814333770189292
sS'director_fees_fraction_from_payments'
p243
I0
sS'other_fraction_from_payments'
p244
F0.06224891489629872
sg17
g5
sg18
I1132
sg19
g5
sg20
I40
sg21
I101740
sg22
g5
sS'salary_fraction_from_payments'
p245
F0.1765424258109674
sg24
I1200000
sg25
I698242
sg26
I240
sg27
F0.3190379541859447
sg28
I11
sg29
I698242
sg30
F0.275
sS'loan_advances_fraction_from_payments'
p246
I0
sS'long_term_incentive_fraction_from_payments'
p247
I0
sg33
I288542
sg34
I1490344
sg35
F0.6809620458140553
sS'bonus_fraction_from_payments'
p248
F0.7342116952580938
sg37
g5
sS'expenses_fraction_from_payments'
p249
F0.010103976612910133
sg39
F0.13651877133105803
ssS'MULLER MARK S'
p250
(dp251
g3
I136
sg4
I842924
sg6
g5
sS'deferral_payments_fraction_from_payments'
p252
F0.2149729538110771
sS'director_fees_fraction_from_stock'
p253
I0
sg9
I00
sg10
I-719000
sg11
S's..muller@enron.com'
p254
sg13
I1725545
sS'deferred_income_fraction_from_payments'
p255
F-0.18336831528128802
sS'director_fees_fraction_from_payments'
p256
I0
sS'other_fraction_from_payments'
p257
F0.00024151570872236406
sg17
g5
sg18
I114
sg19
g5
sg20
I16
sg21
I947
sg22
g5
sS'salary_fraction_from_payments'
p258
F0.0641799304781603
sg24
I1100000
sg25
I1416848
sg26
I12
sg27
F0.30674889660305726
sg28
I0
sg29
I360528
sg30
F0.0
sS'loan_advances_fraction_from_payments'
p259
I0
sS'long_term_incentive_fraction_from_payments'
p260
F0.4400699298915857
sg33
I251654
sg34
I3202070
sg35
F0.6932511033969427
sS'bonus_fraction_from_payments'
p261
F0.28053567011045455
sg37
I1056320
sS'expenses_fraction_from_payments'
p262
I0
sg39
F0.08823529411764706
ssS'JACKSON CHARLENE R'
p263
(dp264
g3
I258
sg4
g5
sg6
I10181
sS'deferral_payments_fraction_from_payments'
p265
I0
sS'director_fees_fraction_from_stock'
p266
I0
sg9
I00
sg10
g5
sg11
S'charlene.jackson@enron.com'
p267
sg13
g5
sS'deferred_income_fraction_from_payments'
p268
I0
sS'director_fees_fraction_from_payments'
p269
I0
sS'other_fraction_from_payments'
p270
I0
sg17
g5
sg18
I117
sg19
g5
sg20
I56
sg21
I2435
sg22
g5
sS'salary_fraction_from_payments'
p271
I0
sg24
I250000
sg25
I725735
sg26
I25
sg27
F0.5683529523247154
sg28
I19
sg29
I540672
sg30
F0.3392857142857143
sS'loan_advances_fraction_from_payments'
p272
I0
sS'long_term_incentive_fraction_from_payments'
p273
I0
sg33
I288558
sg34
I551174
sg35
F0.4316470476752846
sS'bonus_fraction_from_payments'
p274
I0
sg37
I185063
sS'expenses_fraction_from_payments'
p275
I0
sg39
F0.09689922480620156
ssS'WESTFAHL RICHARD K'
p276
(dp277
g3
g5
sg4
g5
sg6
I51870
sS'deferral_payments_fraction_from_payments'
p278
I0
sS'director_fees_fraction_from_stock'
p279
I0
sg9
I00
sg10
I-10800
sg11
S'dick.westfahl@enron.com'
p280
sg13
I256191
sS'deferred_income_fraction_from_payments'
p281
F-0.01397271439383648
sS'director_fees_fraction_from_payments'
p282
I0
sS'other_fraction_from_payments'
p283
F0.5189699004444099
sg17
g5
sg18
g5
sg19
g5
sg20
g5
sg21
I401130
sg22
g5
sS'salary_fraction_from_payments'
p284
F0.08247006540006598
sg24
g5
sg25
I384930
sg26
g5
sg27
F0.335578193040499
sg28
g5
sg29
I384930
sg30
I0
sS'loan_advances_fraction_from_payments'
p285
I0
sS'long_term_incentive_fraction_from_payments'
p286
F0.33145219196957054
sg33
I63744
sg34
I762135
sg35
F0.664421806959501
sS'bonus_fraction_from_payments'
p287
I0
sg37
g5
sS'expenses_fraction_from_payments'
p288
F0.06710784218595355
sg39
I0
ssS'WALTERS GARETH W'
p289
(dp290
g3
g5
sg4
I53625
sg6
I33785
sS'deferral_payments_fraction_from_payments'
p291
I0
sS'director_fees_fraction_from_stock'
p292
I0
sg9
I00
sg10
g5
sg11
g5
sg13
g5
sS'deferred_income_fraction_from_payments'
p293
I0
sS'director_fees_fraction_from_payments'
p294
I0
sS'other_fraction_from_payments'
p295
I0
sg17
g5
sg18
g5
sg19
g5
sg20
g5
sg21
g5
sg22
g5
sS'salary_fraction_from_payments'
p296
I0
sg24
g5
sg25
I1030329
sg26
g5
sg27
F0.9217974858173509
sg28
g5
sg29
g5
sg30
I0
sS'loan_advances_fraction_from_payments'
p297
I0
sS'long_term_incentive_fraction_from_payments'
p298
I0
sg33
g5
sg34
I87410
sg35
F0.07820251418264908
sS'bonus_fraction_from_payments'
p299
I0
sg37
I1030329
sS'expenses_fraction_from_payments'
p300
I0
sg39
I0
ssS'WALLS JR ROBERT H'
p301
(dp302
g3
I671
sg4
g5
sg6
I50936
sS'deferral_payments_fraction_from_payments'
p303
I0
sS'director_fees_fraction_from_stock'
p304
I0
sg9
I00
sg10
g5
sg11
S'rob.walls@enron.com'
p305
sg13
I540751
sS'deferred_income_fraction_from_payments'
p306
I0
sS'director_fees_fraction_from_payments'
p307
I0
sS'other_fraction_from_payments'
p308
I0
sg17
g5
sg18
I215
sg19
g5
sg20
I146
sg21
I2
sg22
g5
sS'salary_fraction_from_payments'
p309
I0
sg24
I850000
sg25
I5898997
sg26
I17
sg27
F0.7663247454427428
sg28
I0
sg29
I1552453
sg30
F0.0
sS'loan_advances_fraction_from_payments'
p310
I0
sS'long_term_incentive_fraction_from_payments'
p311
I0
sg33
I357091
sg34
I1798780
sg35
F0.23367525455725724
sS'bonus_fraction_from_payments'
p312
I0
sg37
I4346544
sS'expenses_fraction_from_payments'
p313
I0
sg39
F0.02533532041728763
ssS'KITCHEN LOUISE'
p314
(dp315
g3
I8305
sg4
g5
sg6
I5774
sS'deferral_payments_fraction_from_payments'
p316
I0
sS'director_fees_fraction_from_stock'
p317
I0
sg9
I00
sg10
g5
sg11
S'louise.kitchen@enron.com'
p318
sg13
g5
sS'deferred_income_fraction_from_payments'
p319
I0
sS'director_fees_fraction_from_payments'
p320
I0
sS'other_fraction_from_payments'
p321
I0
sg17
g5
sg18
I3669
sg19
g5
sg20
I1728
sg21
I93925
sg22
g5
sS'salary_fraction_from_payments'
p322
I0
sg24
I3100000
sg25
I547143
sg26
I251
sg27
F0.136163347339312
sg28
I194
sg29
I466101
sg30
F0.11226851851851852
sS'loan_advances_fraction_from_payments'
p323
I0
sS'long_term_incentive_fraction_from_payments'
p324
I0
sg33
I271442
sg34
I3471141
sg35
F0.863836652660688
sS'bonus_fraction_from_payments'
p325
I0
sg37
I81042
sS'expenses_fraction_from_payments'
p326
I0
sg39
F0.030222757375075255
ssS'CHAN RONNIE'
p327
(dp328
g3
g5
sg4
g5
sg6
g5
sS'deferral_payments_fraction_from_payments'
p329
I0
sS'director_fees_fraction_from_stock'
p330
I0
sg9
I00
sg10
I-98784
sg11
g5
sg13
g5
sS'deferred_income_fraction_from_payments'
p331
I0
sS'director_fees_fraction_from_payments'
p332
I0
sS'other_fraction_from_payments'
p333
I0
sg17
I-32460
sg18
g5
sg19
g5
sg20
g5
sg21
g5
sg22
I98784
sS'salary_fraction_from_payments'
p334
I0
sg24
g5
sg25
g5
sg26
g5
sg27
I0
sg28
g5
sg29
I32460
sg30
I0
sS'loan_advances_fraction_from_payments'
p335
I0
sS'long_term_incentive_fraction_from_payments'
p336
I0
sg33
g5
sg34
g5
sg35
I0
sS'bonus_fraction_from_payments'
p337
I0
sg37
g5
sS'expenses_fraction_from_payments'
p338
I0
sg39
I0
ssS'BELFER ROBERT'
p339
(dp340
g3
g5
sg4
S'NaN'
p341
sg6
I3285
sS'deferral_payments_fraction_from_payments'
p342
I0
sS'director_fees_fraction_from_stock'
p343
I0
sg9
I00
sg10
I-102500
sg11
g5
sg13
g5
sS'deferred_income_fraction_from_payments'
p344
F-0.9689464479841188
sS'director_fees_fraction_from_payments'
p345
F0.9689464479841188
sS'other_fraction_from_payments'
p346
I0
sg17
I-44093
sg18
g5
sg19
g5
sg20
g5
sg21
g5
sg22
I102500
sS'salary_fraction_from_payments'
p347
I0
sg24
g5
sg25
g341
sg26
g5
sg27
I0
sg28
g5
sg29
I44093
sg30
I0
sS'loan_advances_fraction_from_payments'
p348
I0
sS'long_term_incentive_fraction_from_payments'
p349
I0
sg33
g5
sg34
I3285
sg35
I0
sS'bonus_fraction_from_payments'
p350
I0
sg37
g341
sS'expenses_fraction_from_payments'
p351
F0.03105355201588127
sg39
I0
ssS'SHANKMAN JEFFREY A'
p352
(dp353
g3
I3221
sg4
g5
sg6
I178979
sS'deferral_payments_fraction_from_payments'
p354
I0
sS'director_fees_fraction_from_stock'
p355
I0
sg9
I00
sg10
g5
sg11
S'jeffrey.shankman@enron.com'
p356
sg13
I554422
sS'deferred_income_fraction_from_payments'
p357
I0
sS'director_fees_fraction_from_payments'
p358
I0
sS'other_fraction_from_payments'
p359
I0
sg17
g5
sg18
I1730
sg19
g5
sg20
I2681
sg21
I1191
sg22
g5
sS'salary_fraction_from_payments'
p360
I0
sg24
I2000000
sg25
I2072035
sg26
I94
sg27
F0.40542782772817304
sg28
I83
sg29
I630137
sg30
F0.030958597538232
sS'loan_advances_fraction_from_payments'
p361
I0
sS'long_term_incentive_fraction_from_payments'
p362
I0
sg33
I304110
sg34
I3038702
sg35
F0.5945721722718269
sS'bonus_fraction_from_payments'
p363
I0
sg37
I1441898
sS'expenses_fraction_from_payments'
p364
I0
sg39
F0.029183483390251473
ssS'WODRASKA JOHN'
p365
(dp366
g3
g5
sg4
g5
sg6
g5
sS'deferral_payments_fraction_from_payments'
p367
I0
sS'director_fees_fraction_from_stock'
p368
I0
sg9
I00
sg10
g5
sg11
S'john.wodraska@enron.com'
p369
sg13
g5
sS'deferred_income_fraction_from_payments'
p370
I0
sS'director_fees_fraction_from_payments'
p371
I0
sS'other_fraction_from_payments'
p372
I0
sg17
g5
sg18
g5
sg19
g5
sg20
g5
sg21
I189583
sg22
g5
sS'salary_fraction_from_payments'
p373
I0
sg24
g5
sg25
g5
sg26
g5
sg27
I0
sg28
g5
sg29
g5
sg30
I0
sS'loan_advances_fraction_from_payments'
p374
I0
sS'long_term_incentive_fraction_from_payments'
p375
I0
sg33
g5
sg34
I189583
sg35
I0
sS'bonus_fraction_from_payments'
p376
I0
sg37
g5
sS'expenses_fraction_from_payments'
p377
I0
sg39
I0
ssS'BERGSIEKER RICHARD P'
p378
(dp379
g3
I383
sg4
g5
sg6
I59175
sS'deferral_payments_fraction_from_payments'
p380
I0
sS'director_fees_fraction_from_stock'
p381
I0
sg9
I00
sg10
I-485813
sg11
S'rick.bergsieker@enron.com'
p382
sg13
I180250
sS'deferred_income_fraction_from_payments'
p383
F-0.43978389789465205
sS'director_fees_fraction_from_payments'
p384
I0
sS'other_fraction_from_payments'
p385
F0.38682928639775205
sg17
g5
sg18
I233
sg19
g5
sg20
I59
sg21
I427316
sg22
g5
sS'salary_fraction_from_payments'
p386
F0.17011704021950586
sg24
I250000
sg25
I659249
sg26
I4
sg27
F0.5158043312763722
sg28
I0
sg29
I659249
sg30
F0.0
sS'loan_advances_fraction_from_payments'
p387
I0
sS'long_term_incentive_fraction_from_payments'
p388
F0.1631719356944154
sg33
I187922
sg34
I618850
sg35
F0.48419566872362785
sS'bonus_fraction_from_payments'
p389
F0.22631336434731678
sg37
g5
sS'expenses_fraction_from_payments'
p390
F0.05356837334100988
sg39
F0.010443864229765013
ssS'URQUHART JOHN A'
p391
(dp392
g3
g5
sg4
g5
sg6
I228656
sS'deferral_payments_fraction_from_payments'
p393
I0
sS'director_fees_fraction_from_stock'
p394
I0
sg9
I00
sg10
I-36666
sg11
g5
sg13
g5
sS'deferred_income_fraction_from_payments'
p395
F-0.13819434498458477
sS'director_fees_fraction_from_payments'
p396
F0.13819434498458477
sS'other_fraction_from_payments'
p397
I0
sg17
g5
sg18
g5
sg19
g5
sg20
g5
sg21
g5
sg22
I36666
sS'salary_fraction_from_payments'
p398
I0
sg24
g5
sg25
g5
sg26
g5
sg27
I0
sg28
g5
sg29
g5
sg30
I0
sS'loan_advances_fraction_from_payments'
p399
I0
sS'long_term_incentive_fraction_from_payments'
p400
I0
sg33
g5
sg34
I228656
sg35
I0
sS'bonus_fraction_from_payments'
p401
I0
sg37
g5
sS'expenses_fraction_from_payments'
p402
F0.8618056550154153
sg39
I0
ssS'BIBI PHILIPPE A'
p403
(dp404
g3
I1607
sg4
g5
sg6
I38559
sS'deferral_payments_fraction_from_payments'
p405
I0
sS'director_fees_fraction_from_stock'
p406
I0
sg9
I00
sg10
g5
sg11
S'philippe.bibi@enron.com'
p407
sg13
I369721
sS'deferred_income_fraction_from_payments'
p408
I0
sS'director_fees_fraction_from_payments'
p409
I0
sS'other_fraction_from_payments'
p410
I0
sg17
g5
sg18
I1336
sg19
g5
sg20
I40
sg21
I425688
sg22
g5
sS'salary_fraction_from_payments'
p411
I0
sg24
I1000000
sg25
I1843816
sg26
I23
sg27
F0.47381706728848083
sg28
I8
sg29
I378082
sg30
F0.2
sS'loan_advances_fraction_from_payments'
p412
I0
sS'long_term_incentive_fraction_from_payments'
p413
I0
sg33
I213625
sg34
I2047593
sg35
F0.5261829327115192
sS'bonus_fraction_from_payments'
p414
I0
sg37
I1465734
sS'expenses_fraction_from_payments'
p415
I0
sg39
F0.01431238332296204
ssS'RIEKER PAULA H'
p416
(dp417
g3
I1328
sg4
I214678
sg6
I33271
sS'deferral_payments_fraction_from_payments'
p418
F0.1790326077891752
sS'director_fees_fraction_from_stock'
p419
I0
sg9
I01
sg10
I-100000
sg11
S'paula.rieker@enron.com'
p420
sg13
g5
sS'deferred_income_fraction_from_payments'
p421
F-0.08339588024351598
sS'director_fees_fraction_from_payments'
p422
I0
sS'other_fraction_from_payments'
p423
F0.0016262196647485615
sg17
g5
sg18
I1258
sg19
g5
sg20
I82
sg21
I1950
sg22
g5
sS'salary_fraction_from_payments'
p424
F0.20782336752564423
sg24
I700000
sg25
I1918887
sg26
I35
sg27
F0.6358168540818764
sg28
I48
sg29
I283649
sg30
F0.5853658536585366
sS'loan_advances_fraction_from_payments'
p425
I0
sS'long_term_incentive_fraction_from_payments'
p426
I0
sg33
I249201
sg34
I1099100
sg35
F0.36418314591812356
sS'bonus_fraction_from_payments'
p427
F0.5837711617046117
sg37
I1635238
sS'expenses_fraction_from_payments'
p428
F0.027746643315820198
sg39
F0.02635542168674699
ssS'WHALEY DAVID A'
p429
(dp430
g3
g5
sg4
g5
sg6
g5
sS'deferral_payments_fraction_from_payments'
p431
I0
sS'director_fees_fraction_from_stock'
p432
I0
sg9
I00
sg10
g5
sg11
g5
sg13
g5
sS'deferred_income_fraction_from_payments'
p433
I0
sS'director_fees_fraction_from_payments'
p434
I0
sS'other_fraction_from_payments'
p435
I0
sg17
g5
sg18
g5
sg19
g5
sg20
g5
sg21
g5
sg22
g5
sS'salary_fraction_from_payments'
p436
I0
sg24
g5
sg25
I98718
sg26
g5
sg27
I0
sg28
g5
sg29
g5
sg30
I0
sS'loan_advances_fraction_from_payments'
p437
I0
sS'long_term_incentive_fraction_from_payments'
p438
I0
sg33
g5
sg34
g5
sg35
I0
sS'bonus_fraction_from_payments'
p439
I0
sg37
I98718
sS'expenses_fraction_from_payments'
p440
I0
sg39
I0
ssS'BECK SALLY W'
p441
(dp442
g3
I7315
sg4
g5
sg6
I37172
sS'deferral_payments_fraction_from_payments'
p443
I0
sS'director_fees_fraction_from_stock'
p444
I0
sg9
I00
sg10
g5
sg11
S'sally.beck@enron.com'
p445
sg13
g5
sS'deferred_income_fraction_from_payments'
p446
I0
sS'director_fees_fraction_from_payments'
p447
I0
sS'other_fraction_from_payments'
p448
I0
sg17
g5
sg18
I2639
sg19
g5
sg20
I4343
sg21
I566
sg22
g5
sS'salary_fraction_from_payments'
p449
I0
sg24
I700000
sg25
I126027
sg26
I144
sg27
F0.11508316630064058
sg28
I386
sg29
I126027
sg30
F0.08887865530739121
sS'loan_advances_fraction_from_payments'
p450
I0
sS'long_term_incentive_fraction_from_payments'
p451
I0
sg33
I231330
sg34
I969068
sg35
F0.8849168336993594
sS'bonus_fraction_from_payments'
p452
I0
sg37
g5
sS'expenses_fraction_from_payments'
p453
I0
sg39
F0.01968557758031442
ssS'HAUG DAVID L'
p454
(dp455
g3
I573
sg4
g5
sg6
I475
sS'deferral_payments_fraction_from_payments'
p456
I0
sS'director_fees_fraction_from_stock'
p457
I0
sg9
I00
sg10
g5
sg11
S'david.haug@enron.com'
p458
sg13
g5
sS'deferred_income_fraction_from_payments'
p459
I0
sS'director_fees_fraction_from_payments'
p460
I0
sS'other_fraction_from_payments'
p461
I0
sg17
g5
sg18
I471
sg19
g5
sg20
I19
sg21
g5
sg22
g5
sS'salary_fraction_from_payments'
p462
I0
sg24
g5
sg25
I2217299
sg26
I4
sg27
F0.9997858212784531
sg28
I7
sg29
I2217299
sg30
F0.3684210526315789
sS'loan_advances_fraction_from_payments'
p463
I0
sS'long_term_incentive_fraction_from_payments'
p464
I0
sg33
g5
sg34
I475
sg35
F0.00021417872154692047
sS'bonus_fraction_from_payments'
p465
I0
sg37
g5
sS'expenses_fraction_from_payments'
p466
I0
sg39
F0.006980802792321117
ssS'ECHOLS JOHN B'
p467
(dp468
g3
g5
sg4
g5
sg6
I21530
sS'deferral_payments_fraction_from_payments'
p469
I0
sS'director_fees_fraction_from_stock'
p470
I0
sg9
I00
sg10
g5
sg11
S'john.echols@enron.com'
p471
sg13
I2234774
sS'deferred_income_fraction_from_payments'
p472
I0
sS'director_fees_fraction_from_payments'
p473
I0
sS'other_fraction_from_payments'
p474
I0
sg17
g5
sg18
g5
sg19
g5
sg20
g5
sg21
I53775
sg22
g5
sS'salary_fraction_from_payments'
p475
I0
sg24
I200000
sg25
I1008941
sg26
g5
sg27
F0.2725935592290744
sg28
g5
sg29
I407503
sg30
I0
sS'loan_advances_fraction_from_payments'
p476
I0
sS'long_term_incentive_fraction_from_payments'
p477
I0
sg33
I182245
sg34
I2692324
sg35
F0.7274064407709256
sS'bonus_fraction_from_payments'
p478
I0
sg37
I601438
sS'expenses_fraction_from_payments'
p479
I0
sg39
I0
ssS'MENDELSOHN JOHN'
p480
(dp481
g3
g5
sg4
g5
sg6
I148
sS'deferral_payments_fraction_from_payments'
p482
I0
sS'director_fees_fraction_from_stock'
p483
I0
sg9
I00
sg10
I-103750
sg11
g5
sg13
g5
sS'deferred_income_fraction_from_payments'
p484
F-0.9985755259966506
sS'director_fees_fraction_from_payments'
p485
F0.9985755259966506
sS'other_fraction_from_payments'
p486
I0
sg17
g5
sg18
g5
sg19
g5
sg20
g5
sg21
g5
sg22
I103750
sS'salary_fraction_from_payments'
p487
I0
sg24
g5
sg25
g5
sg26
g5
sg27
I0
sg28
g5
sg29
g5
sg30
I0
sS'loan_advances_fraction_from_payments'
p488
I0
sS'long_term_incentive_fraction_from_payments'
p489
I0
sg33
g5
sg34
I148
sg35
I0
sS'bonus_fraction_from_payments'
p490
I0
sg37
g5
sS'expenses_fraction_from_payments'
p491
F0.0014244740033494388
sg39
I0
ssS'HICKERSON GARY J'
p492
(dp493
g3
I1320
sg4
g5
sg6
I98849
sS'deferral_payments_fraction_from_payments'
p494
I0
sS'director_fees_fraction_from_stock'
p495
I0
sg9
I00
sg10
g5
sg11
S'gary.hickerson@enron.com'
p496
sg13
I69223
sS'deferred_income_fraction_from_payments'
p497
I0
sS'director_fees_fraction_from_payments'
p498
I0
sS'other_fraction_from_payments'
p499
I0
sg17
g5
sg18
I900
sg19
g5
sg20
I27
sg21
I1936
sg22
g5
sS'salary_fraction_from_payments'
p500
I0
sg24
I1700000
sg25
I441096
sg26
I40
sg27
F0.1748374484520146
sg28
I1
sg29
I441096
sg30
F0.037037037037037035
sS'loan_advances_fraction_from_payments'
p501
I0
sS'long_term_incentive_fraction_from_payments'
p502
I0
sg33
I211788
sg34
I2081796
sg35
F0.8251625515479855
sS'bonus_fraction_from_payments'
p503
I0
sg37
g5
sS'expenses_fraction_from_payments'
p504
I0
sg39
F0.030303030303030304
ssS'CLINE KENNETH W'
p505
(dp506
g3
g5
sg4
g5
sg6
g5
sS'deferral_payments_fraction_from_payments'
p507
I0
sS'director_fees_fraction_from_stock'
p508
I0
sg9
I00
sg10
g5
sg11
g5
sg13
g5
sS'deferred_income_fraction_from_payments'
p509
I0
sS'director_fees_fraction_from_payments'
p510
I0
sS'other_fraction_from_payments'
p511
I0
sS'restricted_stock_deferred_fraction_from_stock'
p512
F-0.7137562189806158
sg17
I-472568
sg18
g5
sg19
g5
sg20
g5
sg21
g5
sg22
g5
sS'salary_fraction_from_payments'
p513
I0
sg24
g5
sg25
I189518
sg26
g5
sg27
I0
sg28
g5
sS'restricted_stock_fraction_from_stock'
p514
F1.0
sg29
I662086
sg30
I0
sS'loan_advances_fraction_from_payments'
p515
I0
sS'long_term_incentive_fraction_from_payments'
p516
I0
sg33
g5
sg34
g5
sg35
I0
sS'bonus_fraction_from_payments'
p517
I0
sg37
g5
sS'expenses_fraction_from_payments'
p518
I0
sg39
I0
ssS'LEWIS RICHARD'
p519
(dp520
g3
I952
sg4
g5
sg6
g5
sS'deferral_payments_fraction_from_payments'
p521
I0
sS'director_fees_fraction_from_stock'
p522
I0
sg9
I00
sg10
g5
sg11
S'richard.lewis@enron.com'
p523
sg13
g5
sS'deferred_income_fraction_from_payments'
p524
I0
sS'director_fees_fraction_from_payments'
p525
I0
sS'other_fraction_from_payments'
p526
I0
sg17
g5
sg18
I739
sg19
g5
sg20
I26
sg21
g5
sg22
g5
sS'salary_fraction_from_payments'
p527
I0
sg24
g5
sg25
I850477
sg26
I10
sg27
I0
sg28
I0
sg29
g5
sg30
F0.0
sS'loan_advances_fraction_from_payments'
p528
I0
sS'long_term_incentive_fraction_from_payments'
p529
I0
sg33
g5
sg34
g5
sg35
I0
sS'bonus_fraction_from_payments'
p530
I0
sg37
I850477
sS'expenses_fraction_from_payments'
p531
I0
sg39
F0.01050420168067227
ssS'HAYES ROBERT E'
p532
(dp533
g3
I504
sg4
I7961
sg6
g5
sS'deferral_payments_fraction_from_payments'
p534
I0
sS'director_fees_fraction_from_stock'
p535
I0
sg9
I00
sg10
g5
sg11
S'robert.hayes@enron.com'
p536
sg13
g5
sS'deferred_income_fraction_from_payments'
p537
I0
sS'director_fees_fraction_from_payments'
p538
I0
sS'other_fraction_from_payments'
p539
I0
sg17
g5
sg18
I50
sg19
g5
sg20
I12
sg21
g5
sg22
g5
sS'salary_fraction_from_payments'
p540
I0
sg24
g5
sg25
I151418
sg26
I16
sg27
F0.9500498811010234
sg28
I0
sg29
I151418
sg30
F0.0
sS'loan_advances_fraction_from_payments'
p541
I0
sS'long_term_incentive_fraction_from_payments'
p542
I0
sg33
g5
sg34
I7961
sg35
F0.04995011889897665
sS'bonus_fraction_from_payments'
p543
I0
sg37
g5
sS'expenses_fraction_from_payments'
p544
I0
sg39
F0.031746031746031744
ssS'MCCARTY DANNY J'
p545
(dp546
g3
I1433
sg4
g5
sg6
g5
sS'deferral_payments_fraction_from_payments'
p547
I0
sS'director_fees_fraction_from_stock'
p548
I0
sg9
I00
sg10
g5
sg11
S'danny.mccarty@enron.com'
p549
sg13
g5
sS'deferred_income_fraction_from_payments'
p550
I0
sS'director_fees_fraction_from_payments'
p551
I0
sS'other_fraction_from_payments'
p552
I0
sg17
g5
sg18
I508
sg19
g5
sg20
I215
sg21
g5
sg22
g5
sS'salary_fraction_from_payments'
p553
I0
sg24
g5
sg25
I758931
sg26
I25
sg27
I0
sg28
I2
sg29
I94556
sg30
F0.009302325581395349
sS'loan_advances_fraction_from_payments'
p554
I0
sS'long_term_incentive_fraction_from_payments'
p555
I0
sg33
g5
sg34
g5
sg35
I0
sS'bonus_fraction_from_payments'
p556
I0
sg37
I664375
sS'expenses_fraction_from_payments'
p557
I0
sg39
F0.017445917655268667
ssS'KOPPER MICHAEL J'
p558
(dp559
g3
g5
sg4
g5
sg6
I118134
sS'deferral_payments_fraction_from_payments'
p560
I0
sS'director_fees_fraction_from_stock'
p561
I0
sg9
I01
sg10
g5
sg11
S'michael.kopper@enron.com'
p562
sg13
I602671
sS'deferred_income_fraction_from_payments'
p563
I0
sS'director_fees_fraction_from_payments'
p564
I0
sS'other_fraction_from_payments'
p565
I0
sg17
g5
sg18
g5
sg19
g5
sg20
g5
sg21
I907502
sg22
g5
sS'salary_fraction_from_payments'
p566
I0
sg24
I800000
sg25
I985032
sg26
g5
sg27
F0.270788455384859
sg28
g5
sg29
I985032
sg30
I0
sS'loan_advances_fraction_from_payments'
p567
I0
sS'long_term_incentive_fraction_from_payments'
p568
I0
sg33
I224305
sg34
I2652612
sg35
F0.729211544615141
sS'bonus_fraction_from_payments'
p569
I0
sg37
g5
sS'expenses_fraction_from_payments'
p570
I0
sg39
I0
ssS'LEFF DANIEL P'
p571
(dp572
g3
I2822
sg4
g5
sg6
g5
sS'deferral_payments_fraction_from_payments'
p573
I0
sS'director_fees_fraction_from_stock'
p574
I0
sg9
I00
sg10
g5
sg11
S'dan.leff@enron.com'
p575
sg13
I1387399
sS'deferred_income_fraction_from_payments'
p576
I0
sS'director_fees_fraction_from_payments'
p577
I0
sS'other_fraction_from_payments'
p578
I0
sg17
g5
sg18
I2672
sg19
g5
sg20
I63
sg21
I3083
sg22
g5
sS'salary_fraction_from_payments'
p579
I0
sg24
I1000000
sg25
I360528
sg26
I67
sg27
F0.11919242411619317
sg28
I14
sg29
I360528
sg30
F0.2222222222222222
sS'loan_advances_fraction_from_payments'
p580
I0
sS'long_term_incentive_fraction_from_payments'
p581
I0
sg33
I273746
sg34
I2664228
sg35
F0.8808075758838069
sS'bonus_fraction_from_payments'
p582
I0
sg37
g5
sS'expenses_fraction_from_payments'
p583
I0
sg39
F0.02374202693125443
ssS'LAVORATO JOHN J'
p584
(dp585
g3
I7259
sg4
g5
sg6
I49537
sS'deferral_payments_fraction_from_payments'
p586
I0
sS'director_fees_fraction_from_stock'
p587
I0
sg9
I00
sg10
g5
sg11
S'john.lavorato@enron.com'
p588
sg13
I2035380
sS'deferred_income_fraction_from_payments'
p589
I0
sS'director_fees_fraction_from_payments'
p590
I0
sS'other_fraction_from_payments'
p591
I0
sg17
g5
sg18
I3962
sg19
g5
sg20
I2585
sg21
I1552
sg22
g5
sS'salary_fraction_from_payments'
p592
I0
sg24
I8000000
sg25
I5167144
sg26
I528
sg27
F0.33137797770921523
sg28
I411
sg29
I1008149
sg30
F0.15899419729206962
sS'loan_advances_fraction_from_payments'
p593
I0
sS'long_term_incentive_fraction_from_payments'
p594
I0
sg33
I339288
sg34
I10425757
sg35
F0.6686220222907847
sS'bonus_fraction_from_payments'
p595
I0
sg37
I4158995
sS'expenses_fraction_from_payments'
p596
I0
sg39
F0.07273729163796666
ssS'BERBERIAN DAVID'
p597
(dp598
g3
g5
sg4
g5
sg6
I11892
sS'deferral_payments_fraction_from_payments'
p599
I0
sS'director_fees_fraction_from_stock'
p600
I0
sg9
I00
sg10
g5
sg11
S'david.berberian@enron.com'
p601
sg13
g5
sS'deferred_income_fraction_from_payments'
p602
I0
sS'director_fees_fraction_from_payments'
p603
I0
sS'other_fraction_from_payments'
p604
I0
sg17
g5
sg18
g5
sg19
g5
sg20
g5
sg21
g5
sg22
g5
sS'salary_fraction_from_payments'
p605
I0
sg24
g5
sg25
I2493616
sg26
g5
sg27
F0.9160666987498577
sg28
g5
sg29
I869220
sg30
I0
sS'loan_advances_fraction_from_payments'
p606
I0
sS'long_term_incentive_fraction_from_payments'
p607
I0
sg33
I216582
sg34
I228474
sg35
F0.08393330125014235
sS'bonus_fraction_from_payments'
p608
I0
sg37
I1624396
sS'expenses_fraction_from_payments'
p609
I0
sg39
I0
ssS'DETMERING TIMOTHY J'
p610
(dp611
g3
g5
sg4
I875307
sS'exercised_stock_options_fraction_from_stock'
p612
F0.8655241101644818
sg6
I52255
sS'deferral_payments_fraction_from_payments'
p613
F0.4421135414057007
sg9
I00
sg10
I-775241
sg11
S'timothy.detmering@enron.com'
p614
sg13
I415657
sS'deferred_income_fraction_from_payments'
p615
F-0.3915706648671801
sS'director_fees_fraction_from_payments'
p616
I0
sS'other_fraction_from_payments'
p617
F0.000558130419673668
sS'restricted_stock_deferred_fraction_from_stock'
p618
F-0.13447588983551814
sg17
I-315068
sg18
g5
sg19
g5
sg20
g5
sg21
I1105
sg22
g5
sS'salary_fraction_from_payments'
p619
F0.10632258220932769
sg24
I425000
sg25
I2027865
sg26
g5
sg27
F0.6273465187993743
sg28
g5
sS'restricted_stock_fraction_from_stock'
p620
F0.13447588983551814
sg29
I315068
sg30
I0
sS'loan_advances_fraction_from_payments'
p621
I0
sS'long_term_incentive_fraction_from_payments'
p622
F0.2099464396835274
sg33
I210500
sg34
I1204583
sg35
F0.37265348120062564
sS'bonus_fraction_from_payments'
p623
F0.21466554602833382
sg37
I2027865
sS'expenses_fraction_from_payments'
p624
F0.02639376025343667
sg39
I0
ssS'WAKEHAM JOHN'
p625
(dp626
g3
g5
sg4
g5
sg6
I103773
sS'deferral_payments_fraction_from_payments'
p627
I0
sS'director_fees_fraction_from_stock'
p628
I0
sg9
I00
sg10
g5
sg11
g5
sg13
g5
sS'deferred_income_fraction_from_payments'
p629
I0
sS'director_fees_fraction_from_payments'
p630
I0
sS'other_fraction_from_payments'
p631
I0
sg17
g5
sg18
g5
sg19
g5
sg20
g5
sg21
g5
sg22
I109298
sS'salary_fraction_from_payments'
p632
I0
sg24
g5
sg25
g5
sg26
g5
sg27
I0
sg28
g5
sg29
g5
sg30
I0
sS'loan_advances_fraction_from_payments'
p633
I0
sS'long_term_incentive_fraction_from_payments'
p634
I0
sg33
g5
sg34
I213071
sg35
I0
sS'bonus_fraction_from_payments'
p635
I0
sg37
g5
sS'expenses_fraction_from_payments'
p636
I0
sg39
I0
ssS'POWERS WILLIAM'
p637
(dp638
g3
I653
sg4
g5
sg6
g5
sS'deferral_payments_fraction_from_payments'
p639
I0
sS'director_fees_fraction_from_stock'
p640
I0
sg9
I00
sg10
I-17500
sg11
S'ken.powers@enron.com'
p641
sg13
g5
sS'deferred_income_fraction_from_payments'
p642
I0
sS'director_fees_fraction_from_payments'
p643
I0
sS'other_fraction_from_payments'
p644
I0
sg17
g5
sg18
I12
sg19
g5
sg20
I26
sg21
g5
sg22
I17500
sS'salary_fraction_from_payments'
p645
I0
sg24
g5
sg25
g5
sg26
I0
sg27
I0
sg28
I0
sg29
g5
sg30
F0.0
sS'loan_advances_fraction_from_payments'
p646
I0
sS'long_term_incentive_fraction_from_payments'
p647
I0
sg33
g5
sg34
g5
sg35
I0
sS'bonus_fraction_from_payments'
p648
I0
sg37
g5
sS'expenses_fraction_from_payments'
p649
I0
sg39
F0.0
ssS'GOLD JOSEPH'
p650
(dp651
g3
g5
sg4
g5
sg6
g5
sS'deferral_payments_fraction_from_payments'
p652
I0
sS'director_fees_fraction_from_stock'
p653
I0
sg9
I00
sg10
g5
sg11
S'joe.gold@enron.com'
p654
sg13
I304805
sS'deferred_income_fraction_from_payments'
p655
I0
sS'director_fees_fraction_from_payments'
p656
I0
sS'other_fraction_from_payments'
p657
I0
sg17
g5
sg18
g5
sg19
g5
sg20
g5
sg21
I819288
sg22
g5
sS'salary_fraction_from_payments'
p658
I0
sg24
I750000
sg25
I877611
sg26
g5
sg27
F0.29015924173373925
sg28
g5
sg29
I441096
sg30
I0
sS'loan_advances_fraction_from_payments'
p659
I0
sS'long_term_incentive_fraction_from_payments'
p660
I0
sg33
I272880
sg34
I2146973
sg35
F0.7098407582662607
sS'bonus_fraction_from_payments'
p661
I0
sg37
I436515
sS'expenses_fraction_from_payments'
p662
I0
sg39
I0
ssS'BANNANTINE JAMES M'
p663
(dp664
g3
I566
sg4
g5
sS'exercised_stock_options_fraction_from_stock'
p665
F0.697167449298371
sg6
I56301
sS'deferral_payments_fraction_from_payments'
p666
I0
sg9
I00
sg10
I-5104
sg11
S'james.bannantine@enron.com'
p667
sg13
g5
sS'deferred_income_fraction_from_payments'
p668
F-0.005539991815921181
sS'director_fees_fraction_from_payments'
p669
I0
sS'other_fraction_from_payments'
p670
F0.938371932734253
sS'restricted_stock_deferred_fraction_from_stock'
p671
F-0.09652827183444242
sg17
I-560222
sg18
I465
sg19
g5
sg20
I29
sg21
I864523
sg22
g5
sS'salary_fraction_from_payments'
p672
F0.000517746100351568
sg24
g5
sg25
I5243487
sg26
I39
sg27
F0.8512590905637367
sg28
I0
sS'restricted_stock_fraction_from_stock'
p673
F0.3028325507016289
sg29
I1757552
sg30
F0.0
sS'loan_advances_fraction_from_payments'
p674
I0
sS'long_term_incentive_fraction_from_payments'
p675
I0
sg33
I477
sg34
I916197
sg35
F0.14874090943626328
sS'bonus_fraction_from_payments'
p676
I0
sg37
I4046157
sS'expenses_fraction_from_payments'
p677
F0.061110321165395456
sg39
F0.06890459363957598
ssS'DUNCAN JOHN H'
p678
(dp679
g3
g5
sg4
g5
sg6
g5
sS'deferral_payments_fraction_from_payments'
p680
I0
sS'director_fees_fraction_from_stock'
p681
I0
sg9
I00
sg10
I-25000
sg11
g5
sg13
g5
sS'deferred_income_fraction_from_payments'
p682
F-0.24392147679818912
sS'director_fees_fraction_from_payments'
p683
F1.0
sS'other_fraction_from_payments'
p684
I0
sg17
g5
sg18
g5
sg19
g5
sg20
g5
sg21
g5
sg22
I102492
sS'salary_fraction_from_payments'
p685
I0
sg24
g5
sg25
I371750
sg26
g5
sg27
F0.8275049973065742
sg28
g5
sg29
g5
sg30
I0
sS'loan_advances_fraction_from_payments'
p686
I0
sS'long_term_incentive_fraction_from_payments'
p687
I0
sg33
g5
sg34
I77492
sg35
F0.17249500269342583
sS'bonus_fraction_from_payments'
p688
I0
sg37
I371750
sS'expenses_fraction_from_payments'
p689
I0
sg39
I0
ssS'SHAPIRO RICHARD S'
p690
(dp691
g3
I15149
sg4
g5
sg6
I137767
sS'deferral_payments_fraction_from_payments'
p692
I0
sS'director_fees_fraction_from_stock'
p693
I0
sg9
I00
sg10
g5
sg11
S'richard.shapiro@enron.com'
p694
sg13
g5
sS'deferred_income_fraction_from_payments'
p695
I0
sS'director_fees_fraction_from_payments'
p696
I0
sS'other_fraction_from_payments'
p697
I0
sg17
g5
sg18
I4527
sg19
g5
sg20
I1215
sg21
I705
sg22
g5
sS'salary_fraction_from_payments'
p698
I0
sg24
I650000
sg25
I987001
sg26
I74
sg27
F0.48274753992200725
sg28
I65
sg29
I379164
sg30
F0.053497942386831275
sS'loan_advances_fraction_from_payments'
p699
I0
sS'long_term_incentive_fraction_from_payments'
p700
I0
sg33
I269076
sg34
I1057548
sg35
F0.5172524600779927
sS'bonus_fraction_from_payments'
p701
I0
sg37
I607837
sS'expenses_fraction_from_payments'
p702
I0
sg39
F0.0048848108786058485
ssS'SHERRIFF JOHN R'
p703
(dp704
g3
I3187
sg4
g5
sg6
g5
sS'deferral_payments_fraction_from_payments'
p705
I0
sS'director_fees_fraction_from_stock'
p706
I0
sg9
I00
sg10
g5
sg11
S'john.sherriff@enron.com'
p707
sg13
I554422
sS'deferred_income_fraction_from_payments'
p708
I0
sS'director_fees_fraction_from_payments'
p709
I0
sS'other_fraction_from_payments'
p710
I0
sg17
g5
sg18
I2103
sg19
g5
sg20
I92
sg21
I1852186
sg22
g5
sS'salary_fraction_from_payments'
p711
I0
sg24
I1500000
sg25
I3128982
sg26
I28
sg27
F0.4191890273392128
sg28
I23
sg29
I1293424
sg30
F0.25
sS'loan_advances_fraction_from_payments'
p712
I0
sS'long_term_incentive_fraction_from_payments'
p713
I0
sg33
I428780
sg34
I4335388
sg35
F0.5808109726607872
sS'bonus_fraction_from_payments'
p714
I0
sg37
I1835558
sS'expenses_fraction_from_payments'
p715
I0
sg39
F0.008785691873235017
ssS'SHELBY REX'
p716
(dp717
g3
I225
sg4
g5
sg6
I22884
sS'deferral_payments_fraction_from_payments'
p718
I0
sS'director_fees_fraction_from_stock'
p719
I0
sg9
I01
sg10
I-4167
sg11
S'rex.shelby@enron.com'
p720
sg13
g5
sS'deferred_income_fraction_from_payments'
p721
F-0.0020751454643604846
sS'director_fees_fraction_from_payments'
p722
I0
sS'other_fraction_from_payments'
p723
F0.7835075984088061
sg17
g5
sg18
I91
sg19
g5
sg20
I39
sg21
I1573324
sg22
g5
sS'salary_fraction_from_payments'
p724
F0.10549726799903589
sg24
I200000
sg25
I2493616
sg26
I13
sg27
F0.5544447905625813
sg28
I14
sg29
I869220
sg30
F0.358974358974359
sS'loan_advances_fraction_from_payments'
p725
I0
sS'long_term_incentive_fraction_from_payments'
p726
I0
sg33
I211844
sg34
I2003885
sg35
F0.44555520943741866
sS'bonus_fraction_from_payments'
p727
F0.09959901436815381
sg37
I1624396
sS'expenses_fraction_from_payments'
p728
F0.011396119224004159
sg39
F0.057777777777777775
ssS'LEMAISTRE CHARLES'
p729
(dp730
g3
g5
sg4
g5
sg6
g5
sS'deferral_payments_fraction_from_payments'
p731
I0
sS'director_fees_fraction_from_stock'
p732
I0
sg9
I00
sg10
I-25000
sg11
g5
sg13
g5
sS'deferred_income_fraction_from_payments'
p733
F-0.22223802581516908
sS'director_fees_fraction_from_payments'
p734
F1.0
sS'other_fraction_from_payments'
p735
I0
sg17
g5
sg18
g5
sg19
g5
sg20
g5
sg21
g5
sg22
I112492
sS'salary_fraction_from_payments'
p736
I0
sg24
g5
sg25
I412878
sg26
g5
sg27
F0.8251453924096169
sg28
g5
sg29
g5
sg30
I0
sS'loan_advances_fraction_from_payments'
p737
I0
sS'long_term_incentive_fraction_from_payments'
p738
I0
sg33
g5
sg34
I87492
sg35
F0.17485460759038313
sS'bonus_fraction_from_payments'
p739
I0
sg37
I412878
sS'expenses_fraction_from_payments'
p740
I0
sg39
I0
ssS'DEFFNER JOSEPH M'
p741
(dp742
g3
I714
sg4
g5
sg6
I41626
sS'deferral_payments_fraction_from_payments'
p743
I0
sS'director_fees_fraction_from_stock'
p744
I0
sg9
I00
sg10
g5
sg11
S'joseph.deffner@enron.com'
p745
sg13
I335349
sS'deferred_income_fraction_from_payments'
p746
I0
sS'director_fees_fraction_from_payments'
p747
I0
sS'other_fraction_from_payments'
p748
I0
sg17
g5
sg18
I552
sg19
g5
sg20
I74
sg21
I25553
sg22
g5
sS'salary_fraction_from_payments'
p749
I0
sg24
I600000
sg25
I159211
sg26
I115
sg27
F0.11639422163086866
sg28
I4
sg29
I141833
sg30
F0.05405405405405406
sS'loan_advances_fraction_from_payments'
p750
I0
sS'long_term_incentive_fraction_from_payments'
p751
I0
sg33
I206121
sg34
I1208649
sg35
F0.8836057783691313
sS'bonus_fraction_from_payments'
p752
I0
sg37
I17378
sS'expenses_fraction_from_payments'
p753
I0
sg39
F0.16106442577030813
ssS'KISHKILL JOSEPH G'
p754
(dp755
g3
g5
sg4
g5
sg6
I116335
sS'deferral_payments_fraction_from_payments'
p756
I0
sS'director_fees_fraction_from_stock'
p757
I0
sg9
I00
sg10
I-51042
sg11
S'joe.kishkill@enron.com'
p758
sg13
g5
sS'deferred_income_fraction_from_payments'
p759
F-0.06752141048604515
sS'director_fees_fraction_from_payments'
p760
I0
sS'other_fraction_from_payments'
p761
F0.6156020731858962
sg17
g5
sg18
g5
sg19
g5
sg20
g5
sg21
I465357
sg22
g5
sS'salary_fraction_from_payments'
p762
F0.2305030306718276
sg24
g5
sg25
I1034346
sg26
g5
sg27
F0.5947107993022248
sg28
g5
sg29
I1034346
sg30
I0
sS'loan_advances_fraction_from_payments'
p763
I0
sS'long_term_incentive_fraction_from_payments'
p764
I0
sg33
I174246
sg34
I704896
sg35
F0.40528920069777524
sS'bonus_fraction_from_payments'
p765
I0
sg37
g5
sS'expenses_fraction_from_payments'
p766
F0.15389489614227622
sg39
I0
ssS'WHALLEY LAWRENCE G'
p767
(dp768
g3
I6019
sg4
g5
sg6
I57838
sS'deferral_payments_fraction_from_payments'
p769
I0
sS'director_fees_fraction_from_stock'
p770
I0
sg9
I00
sg10
g5
sg11
S'greg.whalley@enron.com'
p771
sg13
I808346
sS'deferred_income_fraction_from_payments'
p772
I0
sS'director_fees_fraction_from_payments'
p773
I0
sS'other_fraction_from_payments'
p774
I0
sg17
g5
sg18
I3920
sg19
g5
sg20
I556
sg21
I301026
sg22
g5
sS'salary_fraction_from_payments'
p775
I0
sg24
I3000000
sg25
I6079137
sg26
I186
sg27
F0.5651483060203067
sg28
I24
sg29
I2796177
sg30
F0.04316546762589928
sS'loan_advances_fraction_from_payments'
p776
I0
sS'long_term_incentive_fraction_from_payments'
p777
I0
sg33
I510364
sg34
I4677574
sg35
F0.43485169397969325
sS'bonus_fraction_from_payments'
p778
I0
sg37
I3282960
sS'expenses_fraction_from_payments'
p779
I0
sg39
F0.03090214321315833
ssS'MCCONNELL MICHAEL S'
p780
(dp781
g3
I3329
sg4
g5
sg6
I81364
sS'deferral_payments_fraction_from_payments'
p782
I0
sS'director_fees_fraction_from_stock'
p783
I0
sg9
I00
sg10
g5
sg11
S'mike.mcconnell@enron.com'
p784
sg13
I554422
sS'deferred_income_fraction_from_payments'
p785
I0
sS'director_fees_fraction_from_payments'
p786
I0
sS'other_fraction_from_payments'
p787
I0
sg17
g5
sg18
I2189
sg19
g5
sg20
I2742
sg21
I540
sg22
g5
sS'salary_fraction_from_payments'
p788
I0
sg24
I1100000
sg25
I3101279
sg26
I92
sg27
F0.596096830015052
sg28
I194
sg29
I1478269
sg30
F0.07075127644055434
sS'loan_advances_fraction_from_payments'
p789
I0
sS'long_term_incentive_fraction_from_payments'
p790
I0
sg33
I365038
sg34
I2101364
sg35
F0.403903169984948
sS'bonus_fraction_from_payments'
p791
I0
sg37
I1623010
sS'expenses_fraction_from_payments'
p792
I0
sg39
F0.02763592670471613
ssS'PIRO JIM'
p793
(dp794
g3
I58
sg4
g5
sg6
g5
sS'deferral_payments_fraction_from_payments'
p795
I0
sS'director_fees_fraction_from_stock'
p796
I0
sg9
I00
sg10
g5
sg11
S'jim.piro@enron.com'
p797
sg13
g5
sS'deferred_income_fraction_from_payments'
p798
I0
sS'director_fees_fraction_from_payments'
p799
I0
sS'other_fraction_from_payments'
p800
I0
sg17
g5
sg18
I3
sg19
g5
sg20
I16
sg21
g5
sg22
g5
sS'salary_fraction_from_payments'
p801
I0
sg24
g5
sg25
I47304
sg26
I0
sg27
I0
sg28
I1
sg29
I47304
sg30
F0.0625
sS'loan_advances_fraction_from_payments'
p802
I0
sS'long_term_incentive_fraction_from_payments'
p803
I0
sg33
g5
sg34
g5
sg35
I0
sS'bonus_fraction_from_payments'
p804
I0
sg37
g5
sS'expenses_fraction_from_payments'
p805
I0
sg39
F0.0
ssS'DELAINEY DAVID W'
p806
(dp807
g3
I3093
sg4
g5
sg6
I86174
sS'deferral_payments_fraction_from_payments'
p808
I0
sS'director_fees_fraction_from_stock'
p809
I0
sg9
I01
sg10
g5
sg11
S'david.delainey@enron.com'
p810
sg13
I1294981
sS'deferred_income_fraction_from_payments'
p811
I0
sS'director_fees_fraction_from_payments'
p812
I0
sS'other_fraction_from_payments'
p813
I0
sg17
g5
sg18
I2097
sg19
g5
sg20
I3069
sg21
I1661
sg22
g5
sS'salary_fraction_from_payments'
p814
I0
sg24
I3000000
sg25
I3614261
sg26
I66
sg27
F0.43221206279657126
sg28
I609
sg29
I1323148
sg30
F0.198435972629521
sS'loan_advances_fraction_from_payments'
p815
I0
sS'long_term_incentive_fraction_from_payments'
p816
I0
sg33
I365163
sg34
I4747979
sg35
F0.5677879372034288
sS'bonus_fraction_from_payments'
p817
I0
sg37
I2291113
sS'expenses_fraction_from_payments'
p818
I0
sg39
F0.02133850630455868
ssS'SULLIVAN-SHAKLOVITZ COLLEEN'
p819
(dp820
g3
g5
sg4
I181993
sg6
g5
sS'deferral_payments_fraction_from_payments'
p821
I0
sS'director_fees_fraction_from_stock'
p822
I0
sg9
I00
sg10
g5
sg11
g5
sg13
I554422
sS'deferred_income_fraction_from_payments'
p823
I0
sS'director_fees_fraction_from_payments'
p824
I0
sS'other_fraction_from_payments'
p825
I0
sg17
g5
sg18
g5
sg19
g5
sg20
g5
sg21
I162
sg22
g5
sS'salary_fraction_from_payments'
p826
I0
sg24
I100000
sg25
I1362375
sg26
g5
sg27
F0.5768544343111048
sg28
g5
sg29
g5
sg30
I0
sS'loan_advances_fraction_from_payments'
p827
I0
sS'long_term_incentive_fraction_from_payments'
p828
I0
sg33
I162779
sg34
I999356
sg35
F0.42314556568889516
sS'bonus_fraction_from_payments'
p829
I0
sg37
I1362375
sS'expenses_fraction_from_payments'
p830
I0
sg39
I0
ssS'WROBEL BRUCE'
p831
(dp832
g3
g5
sg4
g5
sg6
g5
sS'deferral_payments_fraction_from_payments'
p833
I0
sS'director_fees_fraction_from_stock'
p834
I0
sg9
I00
sg10
g5
sg11
g5
sg13
g5
sS'deferred_income_fraction_from_payments'
p835
I0
sS'director_fees_fraction_from_payments'
p836
I0
sS'other_fraction_from_payments'
p837
I0
sg17
g5
sg18
g5
sg19
g5
sg20
g5
sg21
g5
sg22
g5
sS'salary_fraction_from_payments'
p838
I0
sg24
g5
sg25
I139130
sg26
g5
sg27
I0
sg28
g5
sg29
g5
sg30
I0
sS'loan_advances_fraction_from_payments'
p839
I0
sS'long_term_incentive_fraction_from_payments'
p840
I0
sg33
g5
sg34
g5
sg35
I0
sS'bonus_fraction_from_payments'
p841
I0
sg37
I139130
sS'expenses_fraction_from_payments'
p842
I0
sg39
I0
ssS'LINDHOLM TOD A'
p843
(dp844
g3
g5
sg4
I204075
sg6
I57727
sS'deferral_payments_fraction_from_payments'
p845
I0
sS'director_fees_fraction_from_stock'
p846
I0
sg9
I00
sg10
g5
sg11
S'tod.lindholm@enron.com'
p847
sg13
I175000
sS'deferred_income_fraction_from_payments'
p848
I0
sS'director_fees_fraction_from_payments'
p849
I0
sS'other_fraction_from_payments'
p850
I0
sg17
g5
sg18
g5
sg19
g5
sg20
g5
sg21
I2630
sg22
g5
sS'salary_fraction_from_payments'
p851
I0
sg24
I200000
sg25
I3064208
sg26
g5
sg27
F0.777698620110114
sg28
g5
sg29
I514847
sg30
I0
sS'loan_advances_fraction_from_payments'
p852
I0
sS'long_term_incentive_fraction_from_payments'
p853
I0
sg33
I236457
sg34
I875889
sg35
F0.22230137988988596
sS'bonus_fraction_from_payments'
p854
I0
sg37
I2549361
sS'expenses_fraction_from_payments'
p855
I0
sg39
I0
ssS'MEYER JEROME J'
p856
(dp857
g3
g5
sg4
g5
sg6
I2151
sS'deferral_payments_fraction_from_payments'
p858
I0
sS'director_fees_fraction_from_stock'
p859
I0
sg9
I00
sg10
I-38346
sg11
g5
sg13
g5
sS'deferred_income_fraction_from_payments'
p860
F-0.9468849544410697
sS'director_fees_fraction_from_payments'
p861
F0.9468849544410697
sS'other_fraction_from_payments'
p862
I0
sg17
g5
sg18
g5
sg19
g5
sg20
g5
sg21
g5
sg22
I38346
sS'salary_fraction_from_payments'
p863
I0
sg24
g5
sg25
g5
sg26
g5
sg27
I0
sg28
g5
sg29
g5
sg30
I0
sS'loan_advances_fraction_from_payments'
p864
I0
sS'long_term_incentive_fraction_from_payments'
p865
I0
sg33
g5
sg34
I2151
sg35
I0
sS'bonus_fraction_from_payments'
p866
I0
sg37
g5
sS'expenses_fraction_from_payments'
p867
F0.05311504555893029
sg39
I0
ssS'LAY KENNETH L'
p868
(dp869
g3
I4273
sg4
I202911
sg6
I99832
sS'deferral_payments_fraction_from_payments'
p870
F0.001953701178664972
sS'director_fees_fraction_from_stock'
p871
I0
sg9
I01
sg10
I-300000
sg11
S'kenneth.lay@enron.com'
p872
sg13
I3600000
sS'deferred_income_fraction_from_payments'
p873
F-0.0028885095120495764
sS'director_fees_fraction_from_payments'
p874
I0
sS'other_fraction_from_payments'
p875
F0.09974725252918615
sg17
g5
sg18
I2411
sg19
I81525000
sg20
I36
sg21
I10359729
sg22
g5
sS'salary_fraction_from_payments'
p876
F0.010324698028235046
sg24
I7000000
sg25
I49110078
sg26
I123
sg27
F0.3216749819615686
sg28
I16
sg29
I14761694
sg30
F0.4444444444444444
sS'loan_advances_fraction_from_payments'
p877
F0.7849524598994724
sS'long_term_incentive_fraction_from_payments'
p878
F0.03466211414459491
sg33
I1072321
sg34
I103559793
sg35
F0.6783250180384315
sS'bonus_fraction_from_payments'
p879
F0.06739855528115678
sg37
I34348384
sS'expenses_fraction_from_payments'
p880
F0.0009612189386897777
sg39
F0.028785396676807865
ssS'BUTTS ROBERT H'
p881
(dp882
g3
g5
sg4
g5
sg6
I9410
sS'deferral_payments_fraction_from_payments'
p883
I0
sS'director_fees_fraction_from_stock'
p884
I0
sg9
I00
sg10
I-75000
sg11
S'bob.butts@enron.com'
p885
sg13
I175000
sS'deferred_income_fraction_from_payments'
p886
F-0.0556965710220395
sS'director_fees_fraction_from_payments'
p887
I0
sS'other_fraction_from_payments'
p888
F0.11188030138528511
sg17
g5
sg18
g5
sg19
g5
sg20
g5
sg21
I150656
sg22
g5
sS'salary_fraction_from_payments'
p889
F0.1942072595653291
sg24
I750000
sg25
I417619
sg26
g5
sg27
F0.2472287193767941
sg28
g5
sg29
I417619
sg30
I0
sS'loan_advances_fraction_from_payments'
p890
I0
sS'long_term_incentive_fraction_from_payments'
p891
F0.12995866571809217
sg33
I261516
sg34
I1271582
sg35
F0.7527712806232059
sS'bonus_fraction_from_payments'
p892
F0.5569657102203951
sg37
g5
sS'expenses_fraction_from_payments'
p893
F0.006988063110898557
sg39
I0
ssS'OLSON CINDY K'
p894
(dp895
g3
I1184
sg4
I77716
sg6
I63791
sS'deferral_payments_fraction_from_payments'
p896
I0
sS'director_fees_fraction_from_stock'
p897
I0
sg9
I00
sg10
g5
sg11
S'cindy.olson@enron.com'
p898
sg13
I100000
sS'deferred_income_fraction_from_payments'
p899
I0
sS'director_fees_fraction_from_payments'
p900
I0
sS'other_fraction_from_payments'
p901
I0
sg17
g5
sg18
I856
sg19
g5
sg20
I52
sg21
I972
sg22
g5
sS'salary_fraction_from_payments'
p902
I0
sg24
I750000
sg25
I2606763
sg26
I20
sg27
F0.6635821419843597
sg28
I15
sg29
I969729
sg30
F0.28846153846153844
sS'loan_advances_fraction_from_payments'
p903
I0
sS'long_term_incentive_fraction_from_payments'
p904
I0
sg33
I329078
sg34
I1321557
sg35
F0.3364178580156403
sS'bonus_fraction_from_payments'
p905
I0
sg37
I1637034
sS'expenses_fraction_from_payments'
p906
I0
sg39
F0.016891891891891893
ssS'MCDONALD REBECCA'
p907
(dp908
g3
I894
sg4
g5
sg6
g5
sS'deferral_payments_fraction_from_payments'
p909
I0
sS'director_fees_fraction_from_stock'
p910
I0
sg9
I00
sg10
g5
sg11
S'rebecca.mcdonald@enron.com'
p911
sg13
g5
sS'deferred_income_fraction_from_payments'
p912
I0
sS'director_fees_fraction_from_payments'
p913
I0
sS'other_fraction_from_payments'
p914
I0
sg17
g5
sg18
I720
sg19
g5
sg20
I13
sg21
g5
sg22
g5
sS'salary_fraction_from_payments'
p915
I0
sg24
g5
sg25
I1691366
sg26
I54
sg27
I0
sg28
I1
sg29
I934065
sg30
F0.07692307692307693
sS'loan_advances_fraction_from_payments'
p916
I0
sS'long_term_incentive_fraction_from_payments'
p917
I0
sg33
g5
sg34
g5
sg35
I0
sS'bonus_fraction_from_payments'
p918
I0
sg37
I757301
sS'expenses_fraction_from_payments'
p919
I0
sg39
F0.06040268456375839
ssS'CUMBERLAND MICHAEL S'
p920
(dp921
g3
g5
sg4
g5
sg6
I22344
sS'deferral_payments_fraction_from_payments'
p922
I0
sS'director_fees_fraction_from_stock'
p923
I0
sg9
I00
sg10
g5
sg11
g5
sg13
I275000
sS'deferred_income_fraction_from_payments'
p924
I0
sS'director_fees_fraction_from_payments'
p925
I0
sS'other_fraction_from_payments'
p926
I0
sg17
g5
sg18
g5
sg19
g5
sg20
g5
sg21
I713
sg22
g5
sS'salary_fraction_from_payments'
p927
I0
sg24
I325000
sg25
I207940
sg26
g5
sg27
F0.20468630647231606
sg28
g5
sg29
I207940
sg30
I0
sS'loan_advances_fraction_from_payments'
p928
I0
sS'long_term_incentive_fraction_from_payments'
p929
I0
sg33
I184899
sg34
I807956
sg35
F0.7953136935276839
sS'bonus_fraction_from_payments'
p930
I0
sg37
g5
sS'expenses_fraction_from_payments'
p931
I0
sg39
I0
ssS'GAHN ROBERT S'
p932
(dp933
g3
g5
sg4
I73122
sg6
I50080
sS'deferral_payments_fraction_from_payments'
p934
F0.08110005578803652
sS'director_fees_fraction_from_stock'
p935
I0
sg9
I00
sg10
I-1042
sg11
g5
sg13
g5
sS'deferred_income_fraction_from_payments'
p936
F-0.0011556885496995985
sS'director_fees_fraction_from_payments'
p937
I0
sS'other_fraction_from_payments'
p938
F0.08489874415917004
sg17
g5
sg18
g5
sg19
g5
sg20
g5
sg21
I76547
sg22
g5
sS'salary_fraction_from_payments'
p939
F0.2129572428509794
sg24
I509870
sg25
I318607
sg26
g5
sg27
F0.26132635384746616
sg28
g5
sg29
I235370
sg30
I0
sS'loan_advances_fraction_from_payments'
p940
I0
sS'long_term_incentive_fraction_from_payments'
p941
I0
sg33
I192008
sg34
I900585
sg35
F0.7386736461525338
sS'bonus_fraction_from_payments'
p942
F0.5654999240262326
sg37
I83237
sS'expenses_fraction_from_payments'
p943
F0.05554403317558148
sg39
I0
ssS'MCCLELLAN GEORGE'
p944
(dp945
g3
I1744
sg4
g5
sg6
I228763
sS'deferral_payments_fraction_from_payments'
p946
I0
sS'director_fees_fraction_from_stock'
p947
I0
sg9
I00
sg10
I-125000
sg11
S'george.mcclellan@enron.com'
p948
sg13
g5
sS'deferred_income_fraction_from_payments'
p949
F-0.08657930699152146
sS'director_fees_fraction_from_payments'
p950
I0
sS'other_fraction_from_payments'
p951
F0.03573093367817294
sg17
g5
sg18
I1469
sg19
g5
sg20
I49
sg21
I51587
sg22
g5
sS'salary_fraction_from_payments'
p952
F0.18244891994046114
sg24
I900000
sg25
I947861
sg26
I52
sg27
F0.4181818422464423
sg28
I0
sg29
I441096
sg30
F0.0
sS'loan_advances_fraction_from_payments'
p953
I0
sS'long_term_incentive_fraction_from_payments'
p954
I0
sg33
I263413
sg34
I1318763
sg35
F0.5818181577535577
sS'bonus_fraction_from_payments'
p955
F0.6233710103389545
sg37
I506765
sS'expenses_fraction_from_payments'
p956
F0.1584491360424114
sg39
F0.02981651376146789
ssS'HERMANN ROBERT J'
p957
(dp958
g3
g5
sg4
g5
sg6
I48357
sS'deferral_payments_fraction_from_payments'
p959
I0
sS'director_fees_fraction_from_stock'
p960
I0
sg9
I00
sg10
I-280000
sg11
S'robert.hermann@enron.com'
p961
sg13
I150000
sS'deferred_income_fraction_from_payments'
p962
F-0.1775004263179882
sS'director_fees_fraction_from_payments'
p963
I0
sS'other_fraction_from_payments'
p964
F0.26399448227246186
sg17
g5
sg18
g5
sg19
g5
sg20
g5
sg21
I416441
sg22
g5
sS'salary_fraction_from_payments'
p965
F0.16650998027843478
sg24
I700000
sg25
I668132
sg26
g5
sg27
F0.3399137054313889
sg28
g5
sg29
I480632
sg30
I0
sS'loan_advances_fraction_from_payments'
p966
I0
sS'long_term_incentive_fraction_from_payments'
p967
F0.09508951409892226
sg33
I262663
sg34
I1297461
sg35
F0.6600862945686111
sS'bonus_fraction_from_payments'
p968
F0.44375106579497053
sg37
I187500
sS'expenses_fraction_from_payments'
p969
F0.030654957555210558
sg39
I0
ssS'SCRIMSHAW MATTHEW'
p970
(dp971
g3
g5
sg4
g5
sg6
g5
sS'deferral_payments_fraction_from_payments'
p972
I0
sS'director_fees_fraction_from_stock'
p973
I0
sg9
I00
sg10
g5
sg11
S'matthew.scrimshaw@enron.com'
p974
sg13
g5
sS'deferred_income_fraction_from_payments'
p975
I0
sS'director_fees_fraction_from_payments'
p976
I0
sS'other_fraction_from_payments'
p977
I0
sg17
g5
sg18
g5
sg19
g5
sg20
g5
sg21
g5
sg22
g5
sS'salary_fraction_from_payments'
p978
I0
sg24
g5
sg25
I759557
sg26
g5
sg27
I0
sg28
g5
sg29
g5
sg30
I0
sS'loan_advances_fraction_from_payments'
p979
I0
sS'long_term_incentive_fraction_from_payments'
p980
I0
sg33
g5
sg34
g5
sg35
I0
sS'bonus_fraction_from_payments'
p981
I0
sg37
I759557
sS'expenses_fraction_from_payments'
p982
I0
sg39
I0
ssS'GATHMANN WILLIAM D'
p983
(dp984
g3
g5
sg4
g5
sS'exercised_stock_options_fraction_from_stock'
p985
F0.8691566321187801
sg6
g5
sS'deferral_payments_fraction_from_payments'
p986
I0
sg9
I00
sg10
g5
sg11
g5
sg13
g5
sS'deferred_income_fraction_from_payments'
p987
I0
sS'director_fees_fraction_from_payments'
p988
I0
sS'other_fraction_from_payments'
p989
I0
sS'restricted_stock_deferred_fraction_from_stock'
p990
F-0.03589045182847081
sg17
I-72419
sg18
g5
sg19
g5
sg20
g5
sg21
g5
sg22
g5
sS'salary_fraction_from_payments'
p991
I0
sg24
g5
sg25
I1945360
sg26
g5
sg27
I0
sg28
g5
sS'restricted_stock_fraction_from_stock'
p992
F0.1308433678812199
sg29
I264013
sg30
I0
sS'loan_advances_fraction_from_payments'
p993
I0
sS'long_term_incentive_fraction_from_payments'
p994
I0
sg33
g5
sg34
g5
sg35
I0
sS'bonus_fraction_from_payments'
p995
I0
sg37
I1753766
sS'expenses_fraction_from_payments'
p996
I0
sg39
I0
ssS'HAEDICKE MARK E'
p997
(dp998
g3
I4009
sg4
I2157527
sS'exercised_stock_options_fraction_from_stock'
p999
F0.5373287940267575
sg6
I76169
sS'deferral_payments_fraction_from_payments'
p1000
F0.45008969346094096
sg9
I00
sg10
I-934484
sg11
S'mark.haedicke@enron.com'
p1001
sg13
I983346
sS'deferred_income_fraction_from_payments'
p1002
F-0.1949461661912708
sS'director_fees_fraction_from_payments'
p1003
I0
sS'other_fraction_from_payments'
p1004
F0.010927602909660463
sS'restricted_stock_deferred_fraction_from_stock'
p1005
F-0.29112849197515445
sg17
I-329825
sg18
I1847
sg19
g5
sg20
I1941
sg21
I52382
sg22
g5
sS'salary_fraction_from_payments'
p1006
F0.07804760105717079
sg24
I1150000
sg25
I803094
sg26
I180
sg27
F0.17225796031409482
sg28
I61
sS'restricted_stock_fraction_from_stock'
p1007
F0.46267120597324257
sg29
I524169
sg30
F0.03142709943328181
sS'loan_advances_fraction_from_payments'
p1008
I0
sS'long_term_incentive_fraction_from_payments'
p1009
F0.20513944887180668
sg33
I374125
sg34
I3859065
sg35
F0.8277420396859052
sS'bonus_fraction_from_payments'
p1010
F0.2399057566742303
sg37
I608750
sS'expenses_fraction_from_payments'
p1011
F0.015889897026190824
sg39
F0.04489897730107259
ssS'BOWEN JR RAYMOND M'
p1012
(dp1013
g3
I1858
sg4
g5
sg6
I65907
sS'deferral_payments_fraction_from_payments'
p1014
I0
sS'director_fees_fraction_from_stock'
p1015
I0
sg9
I01
sg10
I-833
sg11
S'raymond.bowen@enron.com'
p1016
sg13
I974293
sS'deferred_income_fraction_from_payments'
p1017
F-0.0003119357165272006
sS'director_fees_fraction_from_payments'
p1018
I0
sS'other_fraction_from_payments'
p1019
F0.0006070201638542522
sg17
g5
sg18
I1593
sg19
g5
sg20
I27
sg21
I1621
sg22
g5
sS'salary_fraction_from_payments'
p1020
F0.10432845445401513
sg24
I1350000
sg25
I252055
sg26
I140
sg27
F0.08627163336806264
sg28
I15
sg29
I252055
sg30
F0.5555555555555556
sS'loan_advances_fraction_from_payments'
p1021
I0
sS'long_term_incentive_fraction_from_payments'
p1022
F0.36484608050712586
sg33
I278601
sg34
I2669589
sg35
F0.9137283666319373
sS'bonus_fraction_from_payments'
p1023
F0.5055380760044668
sg37
g5
sS'expenses_fraction_from_payments'
p1024
F0.024680368870538066
sg39
F0.07534983853606028
ssS'GILLIS JOHN'
p1025
(dp1026
g3
g5
sg4
g5
sg6
g5
sS'deferral_payments_fraction_from_payments'
p1027
I0
sS'director_fees_fraction_from_stock'
p1028
I0
sg9
I00
sg10
g5
sg11
g5
sg13
g5
sS'deferred_income_fraction_from_payments'
p1029
I0
sS'director_fees_fraction_from_payments'
p1030
I0
sS'other_fraction_from_payments'
p1031
I0
sg17
g5
sg18
g5
sg19
g5
sg20
g5
sg21
g5
sg22
g5
sS'salary_fraction_from_payments'
p1032
I0
sg24
g5
sg25
I85641
sg26
g5
sg27
I0
sg28
g5
sg29
I75838
sg30
I0
sS'loan_advances_fraction_from_payments'
p1033
I0
sS'long_term_incentive_fraction_from_payments'
p1034
I0
sg33
g5
sg34
g5
sg35
I0
sS'bonus_fraction_from_payments'
p1035
I0
sg37
I9803
sS'expenses_fraction_from_payments'
p1036
I0
sg39
I0
ssS'FITZGERALD JAY L'
p1037
(dp1038
g3
I936
sg4
g5
sg6
I23870
sS'deferral_payments_fraction_from_payments'
p1039
I0
sS'director_fees_fraction_from_stock'
p1040
I0
sg9
I00
sg10
g5
sg11
S'jay.fitzgerald@enron.com'
p1041
sg13
I556416
sS'deferred_income_fraction_from_payments'
p1042
I0
sS'director_fees_fraction_from_payments'
p1043
I0
sS'other_fraction_from_payments'
p1044
I0
sg17
g5
sg18
I723
sg19
g5
sg20
I16
sg21
I285414
sg22
g5
sS'salary_fraction_from_payments'
p1045
I0
sg24
I350000
sg25
I1621236
sg26
I1
sg27
F0.5339875952416477
sg28
I8
sg29
I956775
sg30
F0.5
sS'loan_advances_fraction_from_payments'
p1046
I0
sS'long_term_incentive_fraction_from_payments'
p1047
I0
sg33
I199157
sg34
I1414857
sg35
F0.46601240475835226
sS'bonus_fraction_from_payments'
p1048
I0
sg37
I664461
sS'expenses_fraction_from_payments'
p1049
I0
sg39
F0.0010683760683760685
ssS'MORAN MICHAEL P'
p1050
(dp1051
g3
I672
sg4
g5
sg6
g5
sS'deferral_payments_fraction_from_payments'
p1052
I0
sS'director_fees_fraction_from_stock'
p1053
I0
sg9
I00
sg10
g5
sg11
S'michael.moran@enron.com'
p1054
sg13
g5
sS'deferred_income_fraction_from_payments'
p1055
I0
sS'director_fees_fraction_from_payments'
p1056
I0
sS'other_fraction_from_payments'
p1057
I0
sg17
g5
sg18
I127
sg19
g5
sg20
I19
sg21
g5
sg22
g5
sS'salary_fraction_from_payments'
p1058
I0
sg24
g5
sg25
I221141
sg26
I0
sg27
I0
sg28
I0
sg29
I161602
sg30
F0.0
sS'loan_advances_fraction_from_payments'
p1059
I0
sS'long_term_incentive_fraction_from_payments'
p1060
I0
sg33
g5
sg34
g5
sg35
I0
sS'bonus_fraction_from_payments'
p1061
I0
sg37
I59539
sS'expenses_fraction_from_payments'
p1062
I0
sg39
F0.0
ssS'REDMOND BRIAN L'
p1063
(dp1064
g3
I1671
sg4
g5
sg6
I14689
sS'deferral_payments_fraction_from_payments'
p1065
I0
sS'director_fees_fraction_from_stock'
p1066
I0
sg9
I00
sg10
g5
sg11
S'brian.redmond@enron.com'
p1067
sg13
g5
sS'deferred_income_fraction_from_payments'
p1068
I0
sS'director_fees_fraction_from_payments'
p1069
I0
sS'other_fraction_from_payments'
p1070
I0
sg17
g5
sg18
I1063
sg19
g5
sg20
I221
sg21
g5
sg22
g5
sS'salary_fraction_from_payments'
p1071
I0
sg24
g5
sg25
I7890324
sg26
I204
sg27
F0.986062103365308
sg28
I49
sg29
I381285
sg30
F0.22171945701357465
sS'loan_advances_fraction_from_payments'
p1072
I0
sS'long_term_incentive_fraction_from_payments'
p1073
I0
sg33
I96840
sg34
I111529
sg35
F0.01393789663469199
sS'bonus_fraction_from_payments'
p1074
I0
sg37
I7509039
sS'expenses_fraction_from_payments'
p1075
I0
sg39
F0.12208258527827648
ssS'BAZELIDES PHILIP J'
p1076
(dp1077
g3
g5
sg4
I684694
sg6
g5
sS'deferral_payments_fraction_from_payments'
p1078
I0
sS'director_fees_fraction_from_stock'
p1079
I0
sg9
I00
sg10
g5
sg11
g5
sg13
I93750
sS'deferred_income_fraction_from_payments'
p1080
I0
sS'director_fees_fraction_from_payments'
p1081
I0
sS'other_fraction_from_payments'
p1082
I0
sg17
g5
sg18
g5
sg19
g5
sg20
g5
sg21
I874
sg22
g5
sS'salary_fraction_from_payments'
p1083
I0
sg24
g5
sg25
I1599641
sg26
g5
sg27
F0.6503195208346122
sg28
g5
sg29
g5
sg30
I0
sS'loan_advances_fraction_from_payments'
p1084
I0
sS'long_term_incentive_fraction_from_payments'
p1085
I0
sg33
I80818
sg34
I860136
sg35
F0.34968047916538775
sS'bonus_fraction_from_payments'
p1086
I0
sg37
I1599641
sS'expenses_fraction_from_payments'
p1087
I0
sg39
I0
ssS'BELDEN TIMOTHY N'
p1088
(dp1089
g3
I7991
sg4
I2144013
sg6
I17355
sS'deferral_payments_fraction_from_payments'
p1090
F0.2736084085071281
sS'director_fees_fraction_from_stock'
p1091
I0
sg9
I01
sg10
I-2334434
sg11
S'tim.belden@enron.com'
p1092
sg13
g5
sS'deferred_income_fraction_from_payments'
p1093
F-0.29790900125369063
sS'director_fees_fraction_from_payments'
p1094
I0
sS'other_fraction_from_payments'
p1095
F0.026888243893873252
sg17
g5
sg18
I5521
sg19
g5
sg20
I484
sg21
I210698
sg22
g5
sS'salary_fraction_from_payments'
p1096
F0.02730950130065298
sg24
I5249999
sg25
I1110705
sg26
I228
sg27
F0.16797470182620813
sg28
I108
sg29
I157569
sg30
F0.2231404958677686
sS'loan_advances_fraction_from_payments'
p1097
I0
sS'long_term_incentive_fraction_from_payments'
p1098
I0
sg33
I213999
sg34
I5501630
sg35
F0.8320252981737919
sS'bonus_fraction_from_payments'
p1099
F0.6699790864393145
sg37
I953136
sS'expenses_fraction_from_payments'
p1100
F0.0022147598590312686
sg39
F0.028532098610937303
ssS'DURAN WILLIAM D'
p1101
(dp1102
g3
I904
sg4
g5
sg6
I25785
sS'deferral_payments_fraction_from_payments'
p1103
I0
sS'director_fees_fraction_from_stock'
p1104
I0
sg9
I00
sg10
g5
sg11
S'w.duran@enron.com'
p1105
sg13
I1105218
sS'deferred_income_fraction_from_payments'
p1106
I0
sS'director_fees_fraction_from_payments'
p1107
I0
sS'other_fraction_from_payments'
p1108
I0
sg17
g5
sg18
I599
sg19
g5
sg20
I12
sg21
I1568
sg22
g5
sS'salary_fraction_from_payments'
p1109
I0
sg24
I750000
sg25
I1640910
sg26
I106
sg27
F0.4394306316284757
sg28
I3
sg29
I189041
sg30
F0.25
sS'loan_advances_fraction_from_payments'
p1110
I0
sS'long_term_incentive_fraction_from_payments'
p1111
I0
sg33
I210692
sg34
I2093263
sg35
F0.5605693683715243
sS'bonus_fraction_from_payments'
p1112
I0
sg37
I1451869
sS'expenses_fraction_from_payments'
p1113
I0
sg39
F0.1172566371681416
ssS'THORN TERENCE H'
p1114
(dp1115
g3
I266
sg4
I16586
sg6
I46145
sS'deferral_payments_fraction_from_payments'
p1116
I0
sS'director_fees_fraction_from_stock'
p1117
I0
sg9
I00
sg10
g5
sg11
S'terence.thorn@enron.com'
p1118
sg13
I200000
sS'deferred_income_fraction_from_payments'
p1119
I0
sS'director_fees_fraction_from_payments'
p1120
I0
sS'other_fraction_from_payments'
p1121
I0
sg17
g5
sg18
I73
sg19
g5
sg20
I41
sg21
I426629
sg22
g5
sS'salary_fraction_from_payments'
p1122
I0
sg24
g5
sg25
I4817796
sg26
I0
sg27
F0.8409123080529403
sg28
I0
sg29
I365320
sg30
F0.0
sS'loan_advances_fraction_from_payments'
p1123
I0
sS'long_term_incentive_fraction_from_payments'
p1124
I0
sg33
I222093
sg34
I911453
sg35
F0.15908769194705974
sS'bonus_fraction_from_payments'
p1125
I0
sg37
I4452476
sS'expenses_fraction_from_payments'
p1126
I0
sg39
F0.0
ssS'FASTOW ANDREW S'
p1127
(dp1128
g3
g5
sg4
g5
sg6
I55921
sS'deferral_payments_fraction_from_payments'
p1129
I0
sS'director_fees_fraction_from_stock'
p1130
I0
sg9
I01
sg10
I-1386055
sg11
S'andrew.fastow@enron.com'
p1131
sg13
I1736055
sS'deferred_income_fraction_from_payments'
p1132
F-0.36378078694262517
sS'director_fees_fraction_from_payments'
p1133
I0
sS'other_fraction_from_payments'
p1134
F0.07282255918289574
sg17
g5
sg18
g5
sg19
g5
sg20
g5
sg21
I277464
sg22
g5
sS'salary_fraction_from_payments'
p1135
F0.11566457697857663
sg24
I1300000
sg25
I1794412
sg26
g5
sg27
F0.42536781482495534
sg28
g5
sg29
I1794412
sg30
I0
sS'loan_advances_fraction_from_payments'
p1136
I0
sS'long_term_incentive_fraction_from_payments'
p1137
F0.45564097678351806
sg33
I440698
sg34
I2424083
sg35
F0.5746321851750447
sS'bonus_fraction_from_payments'
p1138
F0.3411949908376022
sg37
g5
sS'expenses_fraction_from_payments'
p1139
F0.014676896217407349
sg39
I0
ssS'FOY JOE'
p1140
(dp1141
g3
I57
sg4
I181755
sg6
g5
sS'deferral_payments_fraction_from_payments'
p1142
I0
sS'director_fees_fraction_from_stock'
p1143
I0
sg9
I00
sg10
g5
sg11
S'tracy.foy@enron.com'
p1144
sg13
g5
sS'deferred_income_fraction_from_payments'
p1145
I0
sS'director_fees_fraction_from_payments'
p1146
I0
sS'other_fraction_from_payments'
p1147
I0
sg17
g5
sg18
I2
sg19
g5
sg20
I13
sg21
g5
sg22
g5
sS'salary_fraction_from_payments'
p1148
I0
sg24
g5
sg25
I343434
sg26
I0
sg27
F0.6539245871486264
sg28
I0
sg29
g5
sg30
F0.0
sS'loan_advances_fraction_from_payments'
p1149
I0
sS'long_term_incentive_fraction_from_payments'
p1150
I0
sg33
g5
sg34
I181755
sg35
F0.3460754128513735
sS'bonus_fraction_from_payments'
p1151
I0
sg37
I343434
sS'expenses_fraction_from_payments'
p1152
I0
sg39
F0.0
ssS'CALGER CHRISTOPHER F'
p1153
(dp1154
g3
I2598
sg4
g5
sg6
I35818
sS'deferral_payments_fraction_from_payments'
p1155
I0
sS'director_fees_fraction_from_stock'
p1156
I0
sg9
I01
sg10
I-262500
sg11
S'christopher.calger@enron.com'
p1157
sg13
I375304
sS'deferred_income_fraction_from_payments'
p1158
F-0.13802734992220517
sS'director_fees_fraction_from_payments'
p1159
I0
sS'other_fraction_from_payments'
p1160
F0.00025554777928453985
sg17
g5
sg18
I2188
sg19
g5
sg20
I144
sg21
I486
sg22
g5
sS'salary_fraction_from_payments'
p1161
F0.12629581390653155
sg24
I1250000
sg25
I126027
sg26
I199
sg27
F0.07139029435956232
sg28
I25
sg29
I126027
sg30
F0.1736111111111111
sS'loan_advances_fraction_from_payments'
p1162
I0
sS'long_term_incentive_fraction_from_payments'
p1163
F0.1973417772769649
sg33
I240189
sg34
I1639297
sg35
F0.9286097056404377
sS'bonus_fraction_from_payments'
p1164
F0.6572730948676436
sg37
g5
sS'expenses_fraction_from_payments'
p1165
F0.018833766169575408
sg39
F0.07659738260200154
ssS'RICE KENNETH D'
p1166
(dp1167
g3
I905
sg4
g5
sg6
I46950
sS'deferral_payments_fraction_from_payments'
p1168
I0
sS'director_fees_fraction_from_stock'
p1169
I0
sg9
I01
sg10
I-3504386
sg11
S'ken.rice@enron.com'
p1170
sg13
I1617011
sS'deferred_income_fraction_from_payments'
p1171
F-0.8740346522553297
sS'director_fees_fraction_from_payments'
p1172
I0
sS'other_fraction_from_payments'
p1173
F0.04360688136685559
sg17
g5
sg18
I864
sg19
g5
sg20
I18
sg21
I174839
sg22
g5
sS'salary_fraction_from_payments'
p1174
F0.10491151373908948
sg24
I1750000
sg25
I22542539
sg26
I42
sg27
F0.9780866449848615
sg28
I4
sg29
I2748364
sg30
F0.2222222222222222
sS'loan_advances_fraction_from_payments'
p1175
I0
sS'long_term_incentive_fraction_from_payments'
p1176
F0.40330136208683715
sg33
I420636
sg34
I505050
sg35
F0.02191335501513846
sS'bonus_fraction_from_payments'
p1177
F0.43647036640564907
sg37
I19794175
sS'expenses_fraction_from_payments'
p1178
F0.0117098764015687
sg39
F0.04640883977900553
ssS'KAMINSKI WINCENTY J'
p1179
(dp1180
g3
I4607
sg4
g5
sg6
I83585
sS'deferral_payments_fraction_from_payments'
p1181
I0
sS'director_fees_fraction_from_stock'
p1182
I0
sg9
I00
sg10
g5
sg11
S'vince.kaminski@enron.com'
p1183
sg13
I323466
sS'deferred_income_fraction_from_payments'
p1184
I0
sS'director_fees_fraction_from_payments'
p1185
I0
sS'other_fraction_from_payments'
p1186
I0
sg17
g5
sg18
I583
sg19
g5
sg20
I14368
sg21
I4669
sg22
g5
sS'salary_fraction_from_payments'
p1187
I0
sg24
I400000
sg25
I976037
sg26
I41
sg27
F0.4731479335950414
sg28
I171
sg29
I126027
sg30
F0.011901447661469933
sS'loan_advances_fraction_from_payments'
p1188
I0
sS'long_term_incentive_fraction_from_payments'
p1189
I0
sg33
I275101
sg34
I1086821
sg35
F0.5268520664049585
sS'bonus_fraction_from_payments'
p1190
I0
sg37
I850010
sS'expenses_fraction_from_payments'
p1191
I0
sg39
F0.008899500759713479
ssS'LOCKHART EUGENE E'
p1192
(dp1193
g3
g5
sg4
g5
sg6
g5
sS'deferral_payments_fraction_from_payments'
p1194
I0
sS'director_fees_fraction_from_stock'
p1195
I0
sg9
I00
sg10
g5
sg11
g5
sg13
g5
sS'deferred_income_fraction_from_payments'
p1196
I0
sS'director_fees_fraction_from_payments'
p1197
I0
sS'other_fraction_from_payments'
p1198
I0
sg17
g5
sg18
g5
sg19
g5
sg20
g5
sg21
g5
sg22
g5
sS'salary_fraction_from_payments'
p1199
I0
sg24
g5
sg25
g5
sg26
g5
sg27
I0
sg28
g5
sg29
g5
sg30
I0
sS'loan_advances_fraction_from_payments'
p1200
I0
sS'long_term_incentive_fraction_from_payments'
p1201
I0
sg33
g5
sg34
g5
sg35
I0
sS'bonus_fraction_from_payments'
p1202
I0
sg37
g5
sS'expenses_fraction_from_payments'
p1203
I0
sg39
I0
ssS'COX DAVID'
p1204
(dp1205
g3
I102
sg4
g5
sg6
I27861
sS'deferral_payments_fraction_from_payments'
p1206
I0
sS'director_fees_fraction_from_stock'
p1207
I0
sg9
I00
sg10
I-41250
sg11
S'chip.cox@enron.com'
p1208
sg13
g5
sS'deferred_income_fraction_from_payments'
p1209
F-0.03610051433387331
sS'director_fees_fraction_from_payments'
p1210
I0
sS'other_fraction_from_payments'
p1211
F0.00043233100802262823
sg17
g5
sg18
I71
sg19
g5
sg20
I33
sg21
I494
sg22
g5
sS'salary_fraction_from_payments'
p1212
F0.27505353815671213
sg24
I800000
sg25
I495633
sg26
I0
sg27
F0.3103474833847414
sg28
I4
sg29
I378082
sg30
F0.12121212121212122
sS'loan_advances_fraction_from_payments'
p1213
I0
sS'long_term_incentive_fraction_from_payments'
p1214
I0
sg33
I314288
sg34
I1101393
sg35
F0.6896525166152586
sS'bonus_fraction_from_payments'
p1215
F0.7001311870811794
sg37
I117551
sS'expenses_fraction_from_payments'
p1216
F0.024382943754085923
sg39
F0.0
ssS'OVERDYKE JR JERE C'
p1217
(dp1218
g3
g5
sg4
g5
sg6
I18834
sS'deferral_payments_fraction_from_payments'
p1219
I0
sS'director_fees_fraction_from_stock'
p1220
I0
sg9
I00
sg10
g5
sg11
S'jere.overdyke@enron.com'
p1221
sg13
I135836
sS'deferred_income_fraction_from_payments'
p1222
I0
sS'director_fees_fraction_from_payments'
p1223
I0
sS'other_fraction_from_payments'
p1224
I0
sg17
g5
sg18
g5
sg19
g5
sg20
g5
sg21
I176
sg22
g5
sS'salary_fraction_from_payments'
p1225
I0
sg24
g5
sg25
I7307594
sg26
g5
sg27
F0.9669479413569331
sg28
g5
sg29
I2041016
sg30
I0
sS'loan_advances_fraction_from_payments'
p1226
I0
sS'long_term_incentive_fraction_from_payments'
p1227
I0
sg33
I94941
sg34
I249787
sg35
F0.033052058643066956
sS'bonus_fraction_from_payments'
p1228
I0
sg37
I5266578
sS'expenses_fraction_from_payments'
p1229
I0
sg39
I0
ssS'PEREIRA PAULO V. FERRAZ'
p1230
(dp1231
g3
g5
sg4
g5
sg6
I27942
sS'deferral_payments_fraction_from_payments'
p1232
I0
sS'director_fees_fraction_from_stock'
p1233
I0
sg9
I00
sg10
I-101250
sg11
g5
sg13
g5
sS'deferred_income_fraction_from_payments'
p1234
F-0.7837172580345533
sS'director_fees_fraction_from_payments'
p1235
F0.7837172580345533
sS'other_fraction_from_payments'
p1236
I0
sg17
g5
sg18
g5
sg19
g5
sg20
g5
sg21
g5
sg22
I101250
sS'salary_fraction_from_payments'
p1237
I0
sg24
g5
sg25
g5
sg26
g5
sg27
I0
sg28
g5
sg29
g5
sg30
I0
sS'loan_advances_fraction_from_payments'
p1238
I0
sS'long_term_incentive_fraction_from_payments'
p1239
I0
sg33
g5
sg34
I27942
sg35
I0
sS'bonus_fraction_from_payments'
p1240
I0
sg37
g5
sS'expenses_fraction_from_payments'
p1241
F0.21628274196544678
sg39
I0
ssS'STABLER FRANK'
p1242
(dp1243
g3
g5
sg4
g5
sg6
I16514
sS'deferral_payments_fraction_from_payments'
p1244
I0
sS'director_fees_fraction_from_stock'
p1245
I0
sg9
I00
sg10
g5
sg11
S'frank.stabler@enron.com'
p1246
sg13
g5
sS'deferred_income_fraction_from_payments'
p1247
I0
sS'director_fees_fraction_from_payments'
p1248
I0
sS'other_fraction_from_payments'
p1249
I0
sg17
g5
sg18
g5
sg19
g5
sg20
g5
sg21
I356071
sg22
g5
sS'salary_fraction_from_payments'
p1250
I0
sg24
I500000
sg25
I511734
sg26
g5
sg27
F0.31514187832279544
sg28
g5
sg29
I511734
sg30
I0
sS'loan_advances_fraction_from_payments'
p1251
I0
sS'long_term_incentive_fraction_from_payments'
p1252
I0
sg33
I239502
sg34
I1112087
sg35
F0.6848581216772046
sS'bonus_fraction_from_payments'
p1253
I0
sg37
g5
sS'expenses_fraction_from_payments'
p1254
I0
sg39
I0
ssS'SKILLING JEFFREY K'
p1255
(dp1256
g3
I3627
sg4
g5
sg6
I29336
sS'deferral_payments_fraction_from_payments'
p1257
I0
sS'director_fees_fraction_from_stock'
p1258
I0
sg9
I01
sg10
g5
sg11
S'jeff.skilling@enron.com'
p1259
sg13
I1920000
sS'deferred_income_fraction_from_payments'
p1260
I0
sS'director_fees_fraction_from_payments'
p1261
I0
sS'other_fraction_from_payments'
p1262
I0
sg17
g5
sg18
I2042
sg19
g5
sg20
I108
sg21
I22122
sg22
g5
sS'salary_fraction_from_payments'
p1263
I0
sg24
I5600000
sg25
I26093672
sg26
I88
sg27
F0.7503272622792223
sg28
I30
sg29
I6843672
sg30
F0.2777777777777778
sS'loan_advances_fraction_from_payments'
p1264
I0
sS'long_term_incentive_fraction_from_payments'
p1265
I0
sg33
I1111258
sg34
I8682716
sg35
F0.24967273772077767
sS'bonus_fraction_from_payments'
p1266
I0
sg37
I19250000
sS'expenses_fraction_from_payments'
p1267
I0
sg39
F0.0242624758753791
ssS'BLAKE JR. NORMAN P'
p1268
(dp1269
g3
g5
sg4
g5
sg6
I1279
sS'deferral_payments_fraction_from_payments'
p1270
I0
sS'director_fees_fraction_from_stock'
p1271
I0
sg9
I00
sg10
I-113784
sg11
g5
sg13
g5
sS'deferred_income_fraction_from_payments'
p1272
F-0.9888843503124375
sS'director_fees_fraction_from_payments'
p1273
F0.9888843503124375
sS'other_fraction_from_payments'
p1274
I0
sg17
g5
sg18
g5
sg19
g5
sg20
g5
sg21
g5
sg22
I113784
sS'salary_fraction_from_payments'
p1275
I0
sg24
g5
sg25
g5
sg26
g5
sg27
I0
sg28
g5
sg29
g5
sg30
I0
sS'loan_advances_fraction_from_payments'
p1276
I0
sS'long_term_incentive_fraction_from_payments'
p1277
I0
sg33
g5
sg34
I1279
sg35
I0
sS'bonus_fraction_from_payments'
p1278
I0
sg37
g5
sS'expenses_fraction_from_payments'
p1279
F0.011115649687562465
sg39
I0
ssS'SHERRICK JEFFREY B'
p1280
(dp1281
g3
I613
sg4
g5
sg6
g5
sS'deferral_payments_fraction_from_payments'
p1282
I0
sS'director_fees_fraction_from_stock'
p1283
I0
sg9
I00
sg10
g5
sg11
S'jeffrey.sherrick@enron.com'
p1284
sg13
g5
sS'deferred_income_fraction_from_payments'
p1285
I0
sS'director_fees_fraction_from_payments'
p1286
I0
sS'other_fraction_from_payments'
p1287
I0
sg17
g5
sg18
I583
sg19
g5
sg20
I25
sg21
g5
sg22
g5
sS'salary_fraction_from_payments'
p1288
I0
sg24
g5
sg25
I1832468
sg26
I39
sg27
I0
sg28
I18
sg29
I405999
sg30
F0.72
sS'loan_advances_fraction_from_payments'
p1289
I0
sS'long_term_incentive_fraction_from_payments'
p1290
I0
sg33
g5
sg34
g5
sg35
I0
sS'bonus_fraction_from_payments'
p1291
I0
sg37
I1426469
sS'expenses_fraction_from_payments'
p1292
I0
sg39
F0.0636215334420881
ssS'PRENTICE JAMES'
p1293
(dp1294
g3
g5
sg4
I564348
sg6
g5
sS'deferral_payments_fraction_from_payments'
p1295
I0
sS'director_fees_fraction_from_stock'
p1296
I0
sg9
I00
sg10
g5
sg11
S'james.prentice@enron.com'
p1297
sg13
g5
sS'deferred_income_fraction_from_payments'
p1298
I0
sS'director_fees_fraction_from_payments'
p1299
I0
sS'other_fraction_from_payments'
p1300
I0
sg17
g5
sg18
g5
sg19
g5
sg20
g5
sg21
g5
sg22
g5
sS'salary_fraction_from_payments'
p1301
I0
sg24
g5
sg25
I1095040
sg26
g5
sg27
F0.6599059412265245
sg28
g5
sg29
I208809
sg30
I0
sS'loan_advances_fraction_from_payments'
p1302
I0
sS'long_term_incentive_fraction_from_payments'
p1303
I0
sg33
g5
sg34
I564348
sg35
F0.34009405877347554
sS'bonus_fraction_from_payments'
p1304
I0
sg37
I886231
sS'expenses_fraction_from_payments'
p1305
I0
sg39
I0
ssS'GRAY RODNEY'
p1306
(dp1307
g3
g5
sg4
I93585
sg6
g5
sS'deferral_payments_fraction_from_payments'
p1308
I0
sS'director_fees_fraction_from_stock'
p1309
I0
sg9
I00
sg10
g5
sg11
g5
sg13
I365625
sS'deferred_income_fraction_from_payments'
p1310
I0
sS'director_fees_fraction_from_payments'
p1311
I0
sS'other_fraction_from_payments'
p1312
I0
sg17
g5
sg18
g5
sg19
g5
sg20
g5
sg21
I680833
sg22
g5
sS'salary_fraction_from_payments'
p1313
I0
sg24
g5
sg25
g5
sg26
g5
sg27
I0
sg28
g5
sg29
g5
sg30
I0
sS'loan_advances_fraction_from_payments'
p1314
I0
sS'long_term_incentive_fraction_from_payments'
p1315
I0
sg33
I6615
sg34
I1146658
sg35
I0
sS'bonus_fraction_from_payments'
p1316
I0
sg37
g5
sS'expenses_fraction_from_payments'
p1317
I0
sg39
I0
ssS'PICKERING MARK R'
p1318
(dp1319
g3
I898
sg4
g5
sg6
I31653
sS'deferral_payments_fraction_from_payments'
p1320
I0
sS'director_fees_fraction_from_stock'
p1321
I0
sg9
I00
sg10
g5
sg11
S'mark.pickering@enron.com'
p1322
sg13
g5
sS'deferred_income_fraction_from_payments'
p1323
I0
sS'director_fees_fraction_from_payments'
p1324
I0
sS'other_fraction_from_payments'
p1325
I0
sg17
g5
sg18
I728
sg19
I400000
sg20
I67
sg21
g5
sg22
g5
sS'salary_fraction_from_payments'
p1326
I0
sg24
I300000
sg25
I28798
sg26
I7
sg27
F0.02034492697924673
sg28
I0
sg29
g5
sg30
F0.0
sS'loan_advances_fraction_from_payments'
p1327
I0
sS'long_term_incentive_fraction_from_payments'
p1328
I0
sg33
I655037
sg34
I1386690
sg35
F0.9796550730207533
sS'bonus_fraction_from_payments'
p1329
I0
sg37
I28798
sS'expenses_fraction_from_payments'
p1330
I0
sg39
F0.0077951002227171495
ssS'THE TRAVEL AGENCY IN THE PARK'
p1331
(dp1332
g3
g5
sg4
g5
sg6
g5
sS'deferral_payments_fraction_from_payments'
p1333
I0
sS'director_fees_fraction_from_stock'
p1334
I0
sg9
I00
sg10
g5
sg11
g5
sg13
g5
sS'deferred_income_fraction_from_payments'
p1335
I0
sS'director_fees_fraction_from_payments'
p1336
I0
sS'other_fraction_from_payments'
p1337
I0
sg17
g5
sg18
g5
sg19
g5
sg20
g5
sg21
I362096
sg22
g5
sS'salary_fraction_from_payments'
p1338
I0
sg24
g5
sg25
g5
sg26
g5
sg27
I0
sg28
g5
sg29
g5
sg30
I0
sS'loan_advances_fraction_from_payments'
p1339
I0
sS'long_term_incentive_fraction_from_payments'
p1340
I0
sg33
g5
sg34
I362096
sg35
I0
sS'bonus_fraction_from_payments'
p1341
I0
sg37
g5
sS'expenses_fraction_from_payments'
p1342
I0
sg39
I0
ssS'NOLES JAMES L'
p1343
(dp1344
g3
g5
sg4
I774401
sg6
g5
sS'deferral_payments_fraction_from_payments'
p1345
I0
sS'director_fees_fraction_from_stock'
p1346
I0
sg9
I00
sg10
g5
sg11
g5
sg13
g5
sS'deferred_income_fraction_from_payments'
p1347
I0
sS'director_fees_fraction_from_payments'
p1348
I0
sS'other_fraction_from_payments'
p1349
I0
sS'restricted_stock_deferred_fraction_from_stock'
p1350
F-0.20410956242809128
sg17
I-94556
sg18
g5
sg19
g5
sg20
g5
sg21
g5
sg22
g5
sS'salary_fraction_from_payments'
p1351
I0
sg24
g5
sg25
I368705
sg26
g5
sg27
F0.32254664046903786
sg28
g5
sS'restricted_stock_fraction_from_stock'
p1352
F1.0
sg29
I463261
sg30
I0
sS'loan_advances_fraction_from_payments'
p1353
I0
sS'long_term_incentive_fraction_from_payments'
p1354
I0
sg33
g5
sg34
I774401
sg35
F0.6774533595309621
sS'bonus_fraction_from_payments'
p1355
I0
sg37
g5
sS'expenses_fraction_from_payments'
p1356
I0
sg39
I0
ssS'KEAN STEVEN J'
p1357
(dp1358
g3
I12754
sg4
g5
sg6
I41953
sS'deferral_payments_fraction_from_payments'
p1359
I0
sS'director_fees_fraction_from_stock'
p1360
I0
sg9
I00
sg10
g5
sg11
S'steven.kean@enron.com'
p1361
sg13
I300000
sS'deferred_income_fraction_from_payments'
p1362
I0
sS'director_fees_fraction_from_payments'
p1363
I0
sS'other_fraction_from_payments'
p1364
I0
sg17
g5
sg18
I3639
sg19
g5
sg20
I6759
sg21
I1231
sg22
g5
sS'salary_fraction_from_payments'
p1365
I0
sg24
I1000000
sg25
I6153642
sg26
I140
sg27
F0.7788272715260688
sg28
I387
sg29
I4131594
sg30
F0.05725699067909454
sS'loan_advances_fraction_from_payments'
p1366
I0
sS'long_term_incentive_fraction_from_payments'
p1367
I0
sg33
I404338
sg34
I1747522
sg35
F0.22117272847393118
sS'bonus_fraction_from_payments'
p1368
I0
sg37
I2022048
sS'expenses_fraction_from_payments'
p1369
I0
sg39
F0.010976948408342482
ssS'FOWLER PEGGY'
p1370
(dp1371
g3
I517
sg4
g5
sg6
g5
sS'deferral_payments_fraction_from_payments'
p1372
I0
sS'director_fees_fraction_from_stock'
p1373
I0
sg9
I00
sg10
g5
sg11
S'kulvinder.fowler@enron.com'
p1374
sg13
g5
sS'deferred_income_fraction_from_payments'
p1375
I0
sS'director_fees_fraction_from_payments'
p1376
I0
sS'other_fraction_from_payments'
p1377
I0
sg17
g5
sg18
I10
sg19
g5
sg20
I36
sg21
g5
sg22
g5
sS'salary_fraction_from_payments'
p1378
I0
sg24
g5
sg25
I1884748
sg26
I0
sg27
I0
sg28
I0
sg29
I560170
sg30
F0.0
sS'loan_advances_fraction_from_payments'
p1379
I0
sS'long_term_incentive_fraction_from_payments'
p1380
I0
sg33
g5
sg34
g5
sg35
I0
sS'bonus_fraction_from_payments'
p1381
I0
sg37
I1324578
sS'expenses_fraction_from_payments'
p1382
I0
sg39
F0.0
ssS'WASAFF GEORGE'
p1383
(dp1384
g3
I400
sg4
I831299
sg6
g5
sS'deferral_payments_fraction_from_payments'
p1385
F0.5138707563731671
sS'director_fees_fraction_from_stock'
p1386
I0
sg9
I00
sg10
I-583325
sg11
S'george.wasaff@enron.com'
p1387
sg13
I200000
sS'deferred_income_fraction_from_payments'
p1388
F-0.3605846500012363
sS'director_fees_fraction_from_payments'
p1389
I0
sS'other_fraction_from_payments'
p1390
F0.0008808693717083303
sg17
g5
sg18
I337
sg19
g5
sg20
I30
sg21
I1425
sg22
g5
sS'salary_fraction_from_payments'
p1391
F0.16071755309942387
sg24
I325000
sg25
I2056427
sg26
I22
sg27
F0.665333364393032
sg28
I7
sg29
I388167
sg30
F0.23333333333333334
sS'loan_advances_fraction_from_payments'
p1392
I0
sS'long_term_incentive_fraction_from_payments'
p1393
F0.12363078901169547
sg33
I259996
sg34
I1034395
sg35
F0.33466663560696797
sS'bonus_fraction_from_payments'
p1394
F0.20090003214400515
sg37
I1668260
sS'expenses_fraction_from_payments'
p1395
I0
sg39
F0.055
ssS'WHITE JR THOMAS E'
p1396
(dp1397
g3
g5
sg4
g5
sg6
I81353
sS'deferral_payments_fraction_from_payments'
p1398
I0
sS'director_fees_fraction_from_stock'
p1399
I0
sg9
I00
sg10
g5
sg11
S'thomas.white@enron.com'
p1400
sg13
g5
sS'deferred_income_fraction_from_payments'
p1401
I0
sS'director_fees_fraction_from_payments'
p1402
I0
sS'other_fraction_from_payments'
p1403
I0
sg17
g5
sg18
g5
sg19
g5
sg20
g5
sg21
I1085463
sg22
g5
sS'salary_fraction_from_payments'
p1404
I0
sg24
I450000
sg25
I15144123
sg26
g5
sg27
F0.8867370648047057
sg28
g5
sg29
I13847074
sg30
I0
sS'loan_advances_fraction_from_payments'
p1405
I0
sS'long_term_incentive_fraction_from_payments'
p1406
I0
sg33
I317543
sg34
I1934359
sg35
F0.11326293519529429
sS'bonus_fraction_from_payments'
p1407
I0
sg37
I1297049
sS'expenses_fraction_from_payments'
p1408
I0
sg39
I0
ssS'CHRISTODOULOU DIOMEDES'
p1409
(dp1410
g3
g5
sg4
g5
sg6
g5
sS'deferral_payments_fraction_from_payments'
p1411
I0
sS'director_fees_fraction_from_stock'
p1412
I0
sg9
I00
sg10
g5
sg11
S'diomedes.christodoulou@enron.com'
p1413
sg13
g5
sS'deferred_income_fraction_from_payments'
p1414
I0
sS'director_fees_fraction_from_payments'
p1415
I0
sS'other_fraction_from_payments'
p1416
I0
sg17
g5
sg18
g5
sg19
g5
sg20
g5
sg21
g5
sg22
g5
sS'salary_fraction_from_payments'
p1417
I0
sg24
g5
sg25
I6077885
sg26
g5
sg27
I0
sg28
g5
sg29
I950730
sg30
I0
sS'loan_advances_fraction_from_payments'
p1418
I0
sS'long_term_incentive_fraction_from_payments'
p1419
I0
sg33
g5
sg34
g5
sg35
I0
sS'bonus_fraction_from_payments'
p1420
I0
sg37
I5127155
sS'expenses_fraction_from_payments'
p1421
I0
sg39
I0
ssS'ALLEN PHILLIP K'
p1422
(dp1423
g3
I2902
sg4
I2869717
sS'exercised_stock_options_fraction_from_stock'
p1424
F0.9320817129849189
sg6
I13868
sS'deferral_payments_fraction_from_payments'
p1425
F0.37931638859945355
sg9
I00
sg10
I-3081055
sg11
S'phillip.allen@enron.com'
p1426
sg13
I304805
sS'deferred_income_fraction_from_payments'
p1427
F-0.4072508389072126
sS'director_fees_fraction_from_payments'
p1428
I0
sS'other_fraction_from_payments'
p1429
F2.0091211456431745e-05
sS'restricted_stock_deferred_fraction_from_stock'
p1430
F-0.0679182870150811
sg17
I-126027
sg18
I1407
sg19
g5
sg20
I2195
sg21
I152
sg22
g5
sS'salary_fraction_from_payments'
p1431
F0.026694214537392586
sg24
I4175000
sg25
I1729541
sg26
I47
sg27
F0.2783305007432431
sg28
I65
sS'restricted_stock_fraction_from_stock'
p1432
F0.0679182870150811
sg29
I126027
sg30
F0.029612756264236904
sS'loan_advances_fraction_from_payments'
p1433
I0
sS'long_term_incentive_fraction_from_payments'
p1434
F0.040288827026168934
sg33
I201955
sg34
I4484442
sg35
F0.7216694992567569
sS'bonus_fraction_from_payments'
p1435
F0.5518474199381745
sg37
I1729541
sS'expenses_fraction_from_payments'
p1436
F0.0018330586873539173
sg39
F0.016195727084769126
ssS'SHARP VICTORIA T'
p1437
(dp1438
g3
I3136
sg4
I187469
sg6
I116337
sS'deferral_payments_fraction_from_payments'
p1439
I0
sS'director_fees_fraction_from_stock'
p1440
I0
sg9
I00
sg10
g5
sg11
S'vicki.sharp@enron.com'
p1441
sg13
I422158
sS'deferred_income_fraction_from_payments'
p1442
I0
sS'director_fees_fraction_from_payments'
p1443
I0
sS'other_fraction_from_payments'
p1444
I0
sg17
g5
sg18
I2477
sg19
g5
sg20
I136
sg21
I2401
sg22
g5
sS'salary_fraction_from_payments'
p1445
I0
sg24
I600000
sg25
I494136
sg26
I24
sg27
F0.23863845455067909
sg28
I6
sg29
I213063
sg30
F0.04411764705882353
sS'loan_advances_fraction_from_payments'
p1446
I0
sS'long_term_incentive_fraction_from_payments'
p1447
I0
sg33
I248146
sg34
I1576511
sg35
F0.7613615454493209
sS'bonus_fraction_from_payments'
p1448
I0
sg37
I281073
sS'expenses_fraction_from_payments'
p1449
I0
sg39
F0.007653061224489796
ssS'JAEDICKE ROBERT'
p1450
(dp1451
g3
g5
sg4
g5
sS'exercised_stock_options_fraction_from_stock'
p1452
F0.9073370838701
sg6
g5
sS'deferral_payments_fraction_from_payments'
p1453
I0
sg9
I00
sg10
I-25000
sg11
g5
sg13
g5
sS'deferred_income_fraction_from_payments'
p1454
F-0.22988505747126436
sS'director_fees_fraction_from_payments'
p1455
F1.0
sS'other_fraction_from_payments'
p1456
I0
sS'restricted_stock_deferred_fraction_from_stock'
p1457
F-0.09266291612989999
sg17
I-44093
sg18
g5
sg19
g5
sg20
g5
sg21
g5
sg22
I108750
sS'salary_fraction_from_payments'
p1458
I0
sg24
g5
sg25
I431750
sg26
g5
sg27
F0.8375363724539282
sg28
g5
sS'restricted_stock_fraction_from_stock'
p1459
F0.09266291612989999
sg29
I44093
sg30
I0
sS'loan_advances_fraction_from_payments'
p1460
I0
sS'long_term_incentive_fraction_from_payments'
p1461
I0
sg33
g5
sg34
I83750
sg35
F0.16246362754607177
sS'bonus_fraction_from_payments'
p1462
I0
sg37
I431750
sS'expenses_fraction_from_payments'
p1463
I0
sg39
I0
ssS'WINOKUR JR. HERBERT S'
p1464
(dp1465
g3
g5
sg4
g5
sg6
I1413
sS'deferral_payments_fraction_from_payments'
p1466
I0
sS'director_fees_fraction_from_stock'
p1467
I0
sg9
I00
sg10
I-25000
sg11
g5
sg13
g5
sS'deferred_income_fraction_from_payments'
p1468
F-0.2272892574005382
sS'director_fees_fraction_from_payments'
p1469
F0.9871536111717216
sS'other_fraction_from_payments'
p1470
I0
sg17
g5
sg18
g5
sg19
g5
sg20
g5
sg21
g5
sg22
I108579
sS'salary_fraction_from_payments'
p1471
I0
sg24
g5
sg25
g5
sg26
g5
sg27
I0
sg28
g5
sg29
g5
sg30
I0
sS'loan_advances_fraction_from_payments'
p1472
I0
sS'long_term_incentive_fraction_from_payments'
p1473
I0
sg33
g5
sg34
I84992
sg35
I0
sS'bonus_fraction_from_payments'
p1474
I0
sg37
g5
sS'expenses_fraction_from_payments'
p1475
F0.01284638882827842
sg39
I0
ssS'BROWN MICHAEL'
p1476
(dp1477
g3
I1486
sg4
g5
sg6
I49288
sS'deferral_payments_fraction_from_payments'
p1478
I0
sS'director_fees_fraction_from_stock'
p1479
I0
sg9
I00
sg10
g5
sg11
S'michael.brown@enron.com'
p1480
sg13
g5
sS'deferred_income_fraction_from_payments'
p1481
I0
sS'director_fees_fraction_from_payments'
p1482
I0
sS'other_fraction_from_payments'
p1483
I0
sg17
g5
sg18
I761
sg19
g5
sg20
I41
sg21
g5
sg22
g5
sS'salary_fraction_from_payments'
p1484
I0
sg24
g5
sg25
g5
sg26
I13
sg27
I0
sg28
I1
sg29
g5
sg30
F0.024390243902439025
sS'loan_advances_fraction_from_payments'
p1485
I0
sS'long_term_incentive_fraction_from_payments'
p1486
I0
sg33
g5
sg34
I49288
sg35
I0
sS'bonus_fraction_from_payments'
p1487
I0
sg37
g5
sS'expenses_fraction_from_payments'
p1488
I0
sg39
F0.008748317631224764
ssS'BADUM JAMES P'
p1489
(dp1490
g3
g5
sg4
I178980
sg6
I3486
sS'deferral_payments_fraction_from_payments'
p1491
I0
sS'director_fees_fraction_from_stock'
p1492
I0
sg9
I00
sg10
g5
sg11
g5
sg13
g5
sS'deferred_income_fraction_from_payments'
p1493
I0
sS'director_fees_fraction_from_payments'
p1494
I0
sS'other_fraction_from_payments'
p1495
I0
sg17
g5
sg18
g5
sg19
g5
sg20
g5
sg21
g5
sg22
g5
sS'salary_fraction_from_payments'
p1496
I0
sg24
g5
sg25
I257817
sg26
g5
sg27
F0.5855710985888621
sg28
g5
sg29
g5
sg30
I0
sS'loan_advances_fraction_from_payments'
p1497
I0
sS'long_term_incentive_fraction_from_payments'
p1498
I0
sg33
g5
sg34
I182466
sg35
F0.41442890141113786
sS'bonus_fraction_from_payments'
p1499
I0
sg37
I257817
sS'expenses_fraction_from_payments'
p1500
I0
sg39
I0
ssS'HUGHES JAMES A'
p1501
(dp1502
g3
I719
sg4
g5
sg6
g5
sS'deferral_payments_fraction_from_payments'
p1503
I0
sS'director_fees_fraction_from_stock'
p1504
I0
sg9
I00
sg10
g5
sg11
S'james.hughes@enron.com'
p1505
sg13
g5
sS'deferred_income_fraction_from_payments'
p1506
I0
sS'director_fees_fraction_from_payments'
p1507
I0
sS'other_fraction_from_payments'
p1508
I0
sg17
g5
sg18
I589
sg19
g5
sg20
I34
sg21
g5
sg22
g5
sS'salary_fraction_from_payments'
p1509
I0
sg24
g5
sg25
I1118394
sg26
I35
sg27
I0
sg28
I5
sg29
I363428
sg30
F0.14705882352941177
sS'loan_advances_fraction_from_payments'
p1510
I0
sS'long_term_incentive_fraction_from_payments'
p1511
I0
sg33
g5
sg34
g5
sg35
I0
sS'bonus_fraction_from_payments'
p1512
I0
sg37
I754966
sS'expenses_fraction_from_payments'
p1513
I0
sg39
F0.048678720445062586
ssS'REYNOLDS LAWRENCE'
p1514
(dp1515
g3
g5
sg4
I51365
sS'exercised_stock_options_fraction_from_stock'
p1516
F0.9538111323416981
sg6
I8409
sS'deferral_payments_fraction_from_payments'
p1517
F0.0864039698893982
sg9
I00
sg10
I-200000
sg11
g5
sg13
I156250
sS'deferred_income_fraction_from_payments'
p1518
F-0.336431304932924
sS'director_fees_fraction_from_payments'
p1519
I0
sS'other_fraction_from_payments'
p1520
F0.33988309012153584
sS'restricted_stock_deferred_fraction_from_stock'
p1521
F-0.0321547492007964
sg17
I-140264
sg18
g5
sg19
g5
sg20
g5
sg21
I202052
sg22
g5
sS'salary_fraction_from_payments'
p1522
F0.1285150763278523
sg24
I100000
sg25
I4221891
sg26
g5
sg27
F0.9145485864855603
sg28
g5
sS'restricted_stock_fraction_from_stock'
p1523
F0.046188867658301914
sg29
I201483
sg30
I0
sS'loan_advances_fraction_from_payments'
p1524
I0
sS'long_term_incentive_fraction_from_payments'
p1525
F0.2628369569788469
sg33
I76399
sg34
I394475
sg35
F0.08545141351443972
sS'bonus_fraction_from_payments'
p1526
F0.168215652466462
sg37
I4160672
sS'expenses_fraction_from_payments'
p1527
F0.01414525421590479
sg39
I0
ssS'DIMICHELE RICHARD G'
p1528
(dp1529
g3
g5
sg4
g5
sg6
I35812
sS'deferral_payments_fraction_from_payments'
p1530
I0
sS'director_fees_fraction_from_stock'
p1531
I0
sg9
I00
sg10
g5
sg11
S'richard.dimichele@enron.com'
p1532
sg13
I694862
sS'deferred_income_fraction_from_payments'
p1533
I0
sS'director_fees_fraction_from_payments'
p1534
I0
sS'other_fraction_from_payments'
p1535
I0
sg17
g5
sg18
g5
sg19
g5
sg20
g5
sg21
I374689
sg22
g5
sS'salary_fraction_from_payments'
p1536
I0
sg24
I1000000
sg25
I8317782
sg26
g5
sg27
F0.7783861268828842
sg28
g5
sg29
I126027
sg30
I0
sS'loan_advances_fraction_from_payments'
p1537
I0
sS'long_term_incentive_fraction_from_payments'
p1538
I0
sg33
I262788
sg34
I2368151
sg35
F0.22161387311711575
sS'bonus_fraction_from_payments'
p1539
I0
sg37
I8191755
sS'expenses_fraction_from_payments'
p1540
I0
sg39
I0
ssS'BHATNAGAR SANJAY'
p1541
(dp1542
g3
I523
sg4
g5
sS'exercised_stock_options_fraction_from_stock'
p1543
F0.855793049912573
sg6
I137864
sS'deferral_payments_fraction_from_payments'
p1544
I0
sg9
I00
sg10
g5
sg11
S'sanjay.bhatnagar@enron.com'
p1545
sg13
g5
sS'deferred_income_fraction_from_payments'
p1546
I0
sS'director_fees_fraction_from_payments'
p1547
I0
sS'other_fraction_from_payments'
p1548
I0
sS'restricted_stock_deferred_fraction_from_stock'
p1549
F-0.144206950087427
sg17
I-2604490
sg18
I463
sg19
g5
sg20
I29
sg21
g341
sg22
g341
sS'salary_fraction_from_payments'
p1550
I0
sg24
g5
sS'total_stock_value'
p1551
I15456290
sg26
I0
sg27
F0.991159251088581
sg28
I1
sS'restricted_stock_fraction_from_stock'
p1552
F0.144206950087427
sg29
I2604490
sg30
F0.034482758620689655
sS'loan_advances_fraction_from_payments'
p1553
I0
sS'long_term_incentive_fraction_from_payments'
p1554
I0
sg33
g5
sg34
I137864
sg35
F0.008840748911418984
sS'bonus_fraction_from_payments'
p1555
I0
sg37
I15456290
sS'expenses_fraction_from_payments'
p1556
I0
sg39
F0.0
ssS'CARTER REBECCA C'
p1557
(dp1558
g3
I312
sg4
g5
sg6
g5
sS'deferral_payments_fraction_from_payments'
p1559
I0
sS'director_fees_fraction_from_stock'
p1560
I0
sg9
I00
sg10
I-159792
sg11
S'rebecca.carter@enron.com'
p1561
sg13
I75000
sS'deferred_income_fraction_from_payments'
p1562
F-0.25071350233545514
sS'director_fees_fraction_from_payments'
p1563
I0
sS'other_fraction_from_payments'
p1564
F0.000847259507742226
sg17
I-307301
sg18
I196
sg19
g5
sg20
I15
sg21
I540
sg22
g5
sS'salary_fraction_from_payments'
p1565
F0.41077808233793417
sg24
I300000
sg25
g5
sg26
I29
sg27
I0
sg28
I7
sg29
I307301
sg30
F0.4666666666666667
sS'loan_advances_fraction_from_payments'
p1566
I0
sS'long_term_incentive_fraction_from_payments'
p1567
F0.11767493163086472
sg33
I261809
sg34
I477557
sg35
I0
sS'bonus_fraction_from_payments'
p1568
F0.4706997265234589
sg37
g5
sS'expenses_fraction_from_payments'
p1569
I0
sg39
F0.09294871794871795
ssS'BUCHANAN HAROLD G'
p1570
(dp1571
g3
I1088
sg4
g5
sg6
I600
sS'deferral_payments_fraction_from_payments'
p1572
I0
sS'director_fees_fraction_from_stock'
p1573
I0
sg9
I00
sg10
g5
sg11
S'john.buchanan@enron.com'
p1574
sg13
I304805
sS'deferred_income_fraction_from_payments'
p1575
I0
sS'director_fees_fraction_from_payments'
p1576
I0
sS'other_fraction_from_payments'
p1577
I0
sg17
g5
sg18
I23
sg19
g5
sg20
I125
sg21
I1215
sg22
g5
sS'salary_fraction_from_payments'
p1578
I0
sg24
I500000
sg25
I1014505
sg26
I0
sg27
F0.49030226055050835
sg28
I0
sg29
I189041
sg30
F0.0
sS'loan_advances_fraction_from_payments'
p1579
I0
sS'long_term_incentive_fraction_from_payments'
p1580
I0
sg33
I248017
sg34
I1054637
sg35
F0.5096977394494916
sS'bonus_fraction_from_payments'
p1581
I0
sg37
I825464
sS'expenses_fraction_from_payments'
p1582
I0
sg39
F0.0
ssS'YEAP SOON'
p1583
(dp1584
g3
g5
sg4
g5
sg6
I55097
sS'deferral_payments_fraction_from_payments'
p1585
I0
sS'director_fees_fraction_from_stock'
p1586
I0
sg9
I00
sg10
g5
sg11
g5
sg13
g5
sS'deferred_income_fraction_from_payments'
p1587
I0
sS'director_fees_fraction_from_payments'
p1588
I0
sS'other_fraction_from_payments'
p1589
I0
sg17
g5
sg18
g5
sg19
g5
sg20
g5
sg21
g5
sg22
g5
sS'salary_fraction_from_payments'
p1590
I0
sg24
g5
sg25
I192758
sg26
g5
sg27
F0.7777047063807468
sg28
g5
sg29
g5
sg30
I0
sS'loan_advances_fraction_from_payments'
p1591
I0
sS'long_term_incentive_fraction_from_payments'
p1592
I0
sg33
g5
sg34
I55097
sg35
F0.22229529361925318
sS'bonus_fraction_from_payments'
p1593
I0
sg37
I192758
sS'expenses_fraction_from_payments'
p1594
I0
sg39
I0
ssS'MURRAY JULIA H'
p1595
(dp1596
g3
I2192
sg4
g5
sg6
I57580
sS'deferral_payments_fraction_from_payments'
p1597
I0
sS'director_fees_fraction_from_stock'
p1598
I0
sg9
I00
sg10
g5
sg11
S'julia.murray@enron.com'
p1599
sg13
I125000
sS'deferred_income_fraction_from_payments'
p1600
I0
sS'director_fees_fraction_from_payments'
p1601
I0
sS'other_fraction_from_payments'
p1602
I0
sg17
g5
sg18
I395
sg19
g5
sg20
I45
sg21
I330
sg22
g5
sS'salary_fraction_from_payments'
p1603
I0
sg24
I400000
sg25
I597461
sg26
I11
sg27
F0.4238349099602385
sg28
I2
sg29
I196983
sg30
F0.044444444444444446
sS'loan_advances_fraction_from_payments'
p1604
I0
sS'long_term_incentive_fraction_from_payments'
p1605
I0
sg33
I229284
sg34
I812194
sg35
F0.5761650900397615
sS'bonus_fraction_from_payments'
p1606
I0
sg37
I400478
sS'expenses_fraction_from_payments'
p1607
I0
sg39
F0.005018248175182482
ssS'GARLAND C KEVIN'
p1608
(dp1609
g3
I209
sg4
g5
sg6
I48405
sS'deferral_payments_fraction_from_payments'
p1610
I0
sS'director_fees_fraction_from_stock'
p1611
I0
sg9
I00
sg10
g5
sg11
S'kevin.garland@enron.com'
p1612
sg13
I375304
sS'deferred_income_fraction_from_payments'
p1613
I0
sS'director_fees_fraction_from_payments'
p1614
I0
sS'other_fraction_from_payments'
p1615
I0
sg17
g5
sg18
I178
sg19
g5
sg20
I44
sg21
I60814
sg22
g5
sS'salary_fraction_from_payments'
p1616
I0
sg24
I850000
sg25
I896153
sg26
I10
sg27
F0.3639019711510739
sg28
I27
sg29
I259907
sg30
F0.6136363636363636
sS'loan_advances_fraction_from_payments'
p1617
I0
sS'long_term_incentive_fraction_from_payments'
p1618
I0
sg33
I231946
sg34
I1566469
sg35
F0.6360980288489261
sS'bonus_fraction_from_payments'
p1619
I0
sg37
I636246
sS'expenses_fraction_from_payments'
p1620
I0
sg39
F0.04784688995215311
ssS'DODSON KEITH'
p1621
(dp1622
g3
I176
sg4
g5
sg6
I28164
sS'deferral_payments_fraction_from_payments'
p1623
I0
sS'director_fees_fraction_from_stock'
p1624
I0
sg9
I00
sg10
g5
sg11
S'keith.dodson@enron.com'
p1625
sg13
g5
sS'deferred_income_fraction_from_payments'
p1626
I0
sS'director_fees_fraction_from_payments'
p1627
I0
sS'other_fraction_from_payments'
p1628
I0
sg17
g5
sg18
I114
sg19
g5
sg20
I14
sg21
I774
sg22
g5
sS'salary_fraction_from_payments'
p1629
I0
sg24
I70000
sg25
g5
sg26
I10
sg27
I0
sg28
I3
sg29
g5
sg30
F0.21428571428571427
sS'loan_advances_fraction_from_payments'
p1630
I0
sS'long_term_incentive_fraction_from_payments'
p1631
I0
sg33
I221003
sg34
I319941
sg35
I0
sS'bonus_fraction_from_payments'
p1632
I0
sg37
g5
sS'expenses_fraction_from_payments'
p1633
I0
sg39
F0.056818181818181816
ssS'YEAGER F SCOTT'
p1634
(dp1635
g3
g5
sg4
g5
sg6
I53947
sS'deferral_payments_fraction_from_payments'
p1636
I0
sS'director_fees_fraction_from_stock'
p1637
I0
sg9
I01
sg10
g5
sg11
S'scott.yeager@enron.com'
p1638
sg13
g5
sS'deferred_income_fraction_from_payments'
p1639
I0
sS'director_fees_fraction_from_payments'
p1640
I0
sS'other_fraction_from_payments'
p1641
I0
sg17
g5
sg18
g5
sg19
g5
sg20
g5
sg21
I147950
sg22
g5
sS'salary_fraction_from_payments'
p1642
I0
sg24
g5
sg25
I11884758
sg26
g5
sg27
F0.9705758845731887
sg28
g5
sg29
I3576206
sg30
I0
sS'loan_advances_fraction_from_payments'
p1643
I0
sS'long_term_incentive_fraction_from_payments'
p1644
I0
sg33
I158403
sg34
I360300
sg35
F0.02942411542681137
sS'bonus_fraction_from_payments'
p1645
I0
sg37
I8308552
sS'expenses_fraction_from_payments'
p1646
I0
sg39
I0
ssS'HIRKO JOSEPH'
p1647
(dp1648
g3
g5
sg4
I10259
sg6
I77978
sS'deferral_payments_fraction_from_payments'
p1649
I0
sS'director_fees_fraction_from_stock'
p1650
I0
sg9
I01
sg10
g5
sg11
S'joe.hirko@enron.com'
p1651
sg13
g5
sS'deferred_income_fraction_from_payments'
p1652
I0
sS'director_fees_fraction_from_payments'
p1653
I0
sS'other_fraction_from_payments'
p1654
I0
sg17
g5
sg18
g5
sg19
g5
sg20
g5
sg21
I2856
sg22
g5
sS'salary_fraction_from_payments'
p1655
I0
sg24
g5
sg25
I30766064
sg26
g5
sg27
F0.9970479133900767
sg28
g5
sg29
g5
sg30
I0
sS'loan_advances_fraction_from_payments'
p1656
I0
sS'long_term_incentive_fraction_from_payments'
p1657
I0
sg33
g5
sg34
I91093
sg35
F0.002952086609923267
sS'bonus_fraction_from_payments'
p1658
I0
sg37
I30766064
sS'expenses_fraction_from_payments'
p1659
I0
sg39
I0
ssS'DIETRICH JANET R'
p1660
(dp1661
g3
I2572
sg4
g5
sg6
I3475
sS'deferral_payments_fraction_from_payments'
p1662
I0
sS'director_fees_fraction_from_stock'
p1663
I0
sg9
I00
sg10
g5
sg11
S'janet.dietrich@enron.com'
p1664
sg13
I556416
sS'deferred_income_fraction_from_payments'
p1665
I0
sS'director_fees_fraction_from_payments'
p1666
I0
sS'other_fraction_from_payments'
p1667
I0
sg17
g5
sg18
I1902
sg19
g5
sg20
I63
sg21
I473
sg22
g5
sS'salary_fraction_from_payments'
p1668
I0
sg24
I600000
sg25
I1865087
sg26
I305
sg27
F0.5693964160533602
sg28
I14
sg29
I315068
sg30
F0.2222222222222222
sS'loan_advances_fraction_from_payments'
p1669
I0
sS'long_term_incentive_fraction_from_payments'
p1670
I0
sg33
I250100
sg34
I1410464
sg35
F0.43060358394663983
sS'bonus_fraction_from_payments'
p1671
I0
sg37
I1550019
sS'expenses_fraction_from_payments'
p1672
I0
sg39
F0.11858475894245724
ssS'DERRICK JR. JAMES V'
p1673
(dp1674
g3
I2181
sg4
g5
sS'exercised_stock_options_fraction_from_stock'
p1675
F0.8316855933817816
sg6
I51124
sS'deferral_payments_fraction_from_payments'
p1676
I0
sg9
I00
sg10
I-1284000
sg11
S'james.derrick@enron.com'
p1677
sg13
I484000
sS'deferred_income_fraction_from_payments'
p1678
F-0.6997347656460748
sS'director_fees_fraction_from_payments'
p1679
I0
sS'other_fraction_from_payments'
p1680
F0.004077426414769417
sS'restricted_stock_deferred_fraction_from_stock'
p1681
F-0.16831440661821837
sg17
I-1787380
sg18
I1401
sg19
g5
sg20
I909
sg21
I7482
sg22
g5
sS'salary_fraction_from_payments'
p1682
F0.26832702899921035
sg24
I800000
sg25
I8831913
sg26
I64
sg27
F0.9412781387064588
sg28
I20
sS'restricted_stock_fraction_from_stock'
p1683
F0.16831440661821837
sg29
I1787380
sg30
F0.022002200220022004
sS'loan_advances_fraction_from_payments'
p1684
I0
sS'long_term_incentive_fraction_from_payments'
p1685
F0.26376294904415903
sg33
I492375
sg34
I550981
sg35
F0.058721861293541205
sS'bonus_fraction_from_payments'
p1686
F0.43597181660191575
sg37
I8831913
sS'expenses_fraction_from_payments'
p1687
F0.027860778939945426
sg39
F0.029344337459880788
ssS'FREVERT MARK A'
p1688
(dp1689
g3
I3275
sg4
I6426990
sg6
I86987
sS'deferral_payments_fraction_from_payments'
p1690
F0.31169413518952727
sS'director_fees_fraction_from_stock'
p1691
I0
sg9
I00
sg10
I-3367011
sg11
S'mark.frevert@enron.com'
p1692
sg13
I1617011
sS'deferred_income_fraction_from_payments'
p1693
F-0.16329223817348795
sS'director_fees_fraction_from_payments'
p1694
I0
sS'other_fraction_from_payments'
p1695
F0.3602224220219063
sg17
g5
sg18
I2979
sg19
I2000000
sg20
I21
sg21
I7427621
sg22
g5
sS'salary_fraction_from_payments'
p1696
F0.0514527457230983
sg24
I2000000
sg25
I14622185
sg26
I242
sg27
F0.45873931735546497
sg28
I6
sg29
I4188667
sg30
F0.2857142857142857
sS'loan_advances_fraction_from_payments'
p1697
F0.09699536958654899
sS'long_term_incentive_fraction_from_payments'
p1698
F0.07842128978525759
sg33
I1060932
sg34
I17252530
sg35
F0.541260682644535
sS'bonus_fraction_from_payments'
p1699
F0.09699536958654899
sg37
I10433518
sS'expenses_fraction_from_payments'
p1700
F0.004218668107112569
sg39
F0.07389312977099237
ssS'PAI LOU L'
p1701
(dp1702
g3
g5
sg4
g5
sg6
I32047
sS'deferral_payments_fraction_from_payments'
p1703
I0
sS'director_fees_fraction_from_stock'
p1704
I0
sg9
I00
sg10
g5
sg11
S'lou.pai@enron.com'
p1705
sg13
g5
sS'deferred_income_fraction_from_payments'
p1706
I0
sS'director_fees_fraction_from_payments'
p1707
I0
sS'other_fraction_from_payments'
p1708
I0
sg17
g5
sg18
g5
sg19
g5
sg20
g5
sg21
I1829457
sg22
g5
sS'salary_fraction_from_payments'
p1709
I0
sg24
I1000000
sg25
I23817930
sg26
g5
sg27
F0.8840671573801915
sg28
g5
sg29
I8453763
sg30
I0
sS'loan_advances_fraction_from_payments'
p1710
I0
sS'long_term_incentive_fraction_from_payments'
p1711
I0
sg33
I261879
sg34
I3123383
sg35
F0.11593284261980848
sS'bonus_fraction_from_payments'
p1712
I0
sg37
I15364167
sS'expenses_fraction_from_payments'
p1713
I0
sg39
I0
ssS'BAY FRANKLIN R'
p1714
(dp1715
g3
g5
sg4
I260455
sg6
I129142
sS'deferral_payments_fraction_from_payments'
p1716
F0.2530318059100178
sS'director_fees_fraction_from_stock'
p1717
I0
sg9
I00
sg10
I-201641
sg11
S'frank.bay@enron.com'
p1718
sg13
g5
sS'deferred_income_fraction_from_payments'
p1719
F-0.1958940560768728
sS'director_fees_fraction_from_payments'
p1720
I0
sS'other_fraction_from_payments'
p1721
F6.70334399715545e-05
sS'restricted_stock_deferred_fraction_from_stock'
p1722
F-0.5677933550989053
sg17
I-82782
sg18
g5
sg19
g5
sg20
g5
sg21
I69
sg22
g5
sS'salary_fraction_from_payments'
p1723
F0.23284016799162957
sg24
I400000
sg25
I63014
sg26
g5
sg27
F0.07074580952274029
sg28
g5
sS'restricted_stock_fraction_from_stock'
p1724
F1.0
sg29
I145796
sg30
I0
sS'loan_advances_fraction_from_payments'
p1725
I0
sS'long_term_incentive_fraction_from_payments'
p1726
I0
sg33
I239671
sg34
I827696
sg35
F0.9292541904772598
sS'bonus_fraction_from_payments'
p1727
F0.38859965200901164
sg37
g5
sS'expenses_fraction_from_payments'
p1728
F0.12546134064936945
sg39
I0
ssS'HAYSLETT RODERICK J'
p1729
(dp1730
g3
I2649
sg4
g5
sg6
g5
sS'deferral_payments_fraction_from_payments'
p1731
I0
sS'director_fees_fraction_from_stock'
p1732
I0
sg9
I00
sg10
g5
sg11
S'rod.hayslett@enron.com'
p1733
sg13
g5
sS'deferred_income_fraction_from_payments'
p1734
I0
sS'director_fees_fraction_from_payments'
p1735
I0
sS'other_fraction_from_payments'
p1736
I0
sg17
g5
sg18
I571
sg19
g5
sg20
I1061
sg21
g5
sg22
g5
sS'salary_fraction_from_payments'
p1737
I0
sg24
g5
sg25
I346663
sg26
I35
sg27
I0
sg28
I38
sg29
I346663
sg30
F0.03581526861451461
sS'loan_advances_fraction_from_payments'
p1738
I0
sS'long_term_incentive_fraction_from_payments'
p1739
I0
sg33
g5
sg34
g5
sg35
I0
sS'bonus_fraction_from_payments'
p1740
I0
sg37
g5
sS'expenses_fraction_from_payments'
p1741
I0
sg39
F0.01321253303133258
ssS'FUGH JOHN L'
p1742
(dp1743
g3
g5
sg4
I50591
sg6
g5
sS'deferral_payments_fraction_from_payments'
p1744
I0
sS'director_fees_fraction_from_stock'
p1745
I0
sg9
I00
sg10
g5
sg11
g5
sg13
g5
sS'deferred_income_fraction_from_payments'
p1746
I0
sS'director_fees_fraction_from_payments'
p1747
I0
sS'other_fraction_from_payments'
p1748
I0
sg17
g5
sg18
g5
sg19
g5
sg20
g5
sg21
g5
sg22
g5
sS'salary_fraction_from_payments'
p1749
I0
sg24
g5
sg25
I176378
sg26
g5
sg27
F0.77710171873692
sg28
g5
sg29
g5
sg30
I0
sS'loan_advances_fraction_from_payments'
p1750
I0
sS'long_term_incentive_fraction_from_payments'
p1751
I0
sg33
g5
sg34
I50591
sg35
F0.22289828126307998
sS'bonus_fraction_from_payments'
p1752
I0
sg37
I176378
sS'expenses_fraction_from_payments'
p1753
I0
sg39
I0
ssS'FALLON JAMES B'
p1754
(dp1755
g3
I1755
sg4
g5
sg6
I95924
sS'deferral_payments_fraction_from_payments'
p1756
I0
sS'director_fees_fraction_from_stock'
p1757
I0
sg9
I00
sg10
g5
sg11
S'jim.fallon@enron.com'
p1758
sg13
I374347
sS'deferred_income_fraction_from_payments'
p1759
I0
sS'director_fees_fraction_from_payments'
p1760
I0
sS'other_fraction_from_payments'
p1761
I0
sg17
g5
sg18
I1604
sg19
g5
sg20
I75
sg21
I401481
sg22
g5
sS'salary_fraction_from_payments'
p1762
I0
sg24
I2500000
sg25
I2332399
sg26
I42
sg27
F0.38816780026557984
sg28
I37
sg29
I1392142
sg30
F0.49333333333333335
sS'loan_advances_fraction_from_payments'
p1763
I0
sS'long_term_incentive_fraction_from_payments'
p1764
I0
sg33
I304588
sg34
I3676340
sg35
F0.6118321997344202
sS'bonus_fraction_from_payments'
p1765
I0
sg37
I940257
sS'expenses_fraction_from_payments'
p1766
I0
sg39
F0.023931623931623933
ssS'KOENIG MARK E'
p1767
(dp1768
g3
I2374
sg4
g5
sg6
I127017
sS'deferral_payments_fraction_from_payments'
p1769
I0
sS'director_fees_fraction_from_stock'
p1770
I0
sg9
I01
sg10
g5
sg11
S'mark.koenig@enron.com'
p1771
sg13
I300000
sS'deferred_income_fraction_from_payments'
p1772
I0
sS'director_fees_fraction_from_payments'
p1773
I0
sS'other_fraction_from_payments'
p1774
I0
sg17
g5
sg18
I2271
sg19
g5
sg20
I61
sg21
I150458
sg22
g5
sS'salary_fraction_from_payments'
p1775
I0
sg24
I700000
sg25
I1920055
sg26
I53
sg27
F0.5474178583117889
sg28
I15
sg29
I1248318
sg30
F0.2459016393442623
sS'loan_advances_fraction_from_payments'
p1776
I0
sS'long_term_incentive_fraction_from_payments'
p1777
I0
sg33
I309946
sg34
I1587421
sg35
F0.45258214168821115
sS'bonus_fraction_from_payments'
p1778
I0
sg37
I671737
sS'expenses_fraction_from_payments'
p1779
I0
sg39
F0.02232518955349621
ssS'SAVAGE FRANK'
p1780
(dp1781
g3
g5
sg4
g5
sg6
g5
sS'deferral_payments_fraction_from_payments'
p1782
I0
sS'director_fees_fraction_from_stock'
p1783
I0
sg9
I00
sg10
I-121284
sg11
g5
sg13
g5
sS'deferred_income_fraction_from_payments'
p1784
F-0.9700081577810835
sS'director_fees_fraction_from_payments'
p1785
F1.0
sS'other_fraction_from_payments'
p1786
I0
sg17
g5
sg18
g5
sg19
g5
sg20
g5
sg21
g5
sg22
I125034
sS'salary_fraction_from_payments'
p1787
I0
sg24
g5
sg25
g5
sg26
g5
sg27
I0
sg28
g5
sg29
g5
sg30
I0
sS'loan_advances_fraction_from_payments'
p1788
I0
sS'long_term_incentive_fraction_from_payments'
p1789
I0
sg33
g5
sg34
I3750
sg35
I0
sS'bonus_fraction_from_payments'
p1790
I0
sg37
g5
sS'expenses_fraction_from_payments'
p1791
I0
sg39
I0
ssS'IZZO LAWRENCE L'
p1792
(dp1793
g3
I496
sg4
g5
sg6
I28093
sS'deferral_payments_fraction_from_payments'
p1794
I0
sS'director_fees_fraction_from_stock'
p1795
I0
sg9
I00
sg10
g5
sg11
S'larry.izzo@enron.com'
p1796
sg13
I312500
sS'deferred_income_fraction_from_payments'
p1797
I0
sS'director_fees_fraction_from_payments'
p1798
I0
sS'other_fraction_from_payments'
p1799
I0
sg17
g5
sg18
I437
sg19
g5
sg20
I19
sg21
I1553729
sg22
g5
sS'salary_fraction_from_payments'
p1800
I0
sg24
g5
sg25
I5819980
sg26
I28
sg27
F0.7461918442746118
sg28
I5
sg29
I3654808
sg30
F0.2631578947368421
sS'loan_advances_fraction_from_payments'
p1801
I0
sS'long_term_incentive_fraction_from_payments'
p1802
I0
sg33
I85274
sg34
I1979596
sg35
F0.2538081557253882
sS'bonus_fraction_from_payments'
p1803
I0
sg37
I2165172
sS'expenses_fraction_from_payments'
p1804
I0
sg39
F0.056451612903225805
ssS'TILNEY ELIZABETH A'
p1805
(dp1806
g3
I460
sg4
g5
sg6
g5
sS'deferral_payments_fraction_from_payments'
p1807
I0
sS'director_fees_fraction_from_stock'
p1808
I0
sg9
I00
sg10
I-575000
sg11
S'elizabeth.tilney@enron.com'
p1809
sg13
I275000
sS'deferred_income_fraction_from_payments'
p1810
F-0.590110971651069
sS'director_fees_fraction_from_payments'
p1811
I0
sS'other_fraction_from_payments'
p1812
F0.15605099790331006
sg17
g5
sg18
I379
sg19
g5
sg20
I19
sg21
I152055
sg22
g5
sS'salary_fraction_from_payments'
p1813
F0.25383803044562103
sg24
I300000
sg25
I1168042
sg26
I10
sg27
F0.7451932616025545
sg28
I11
sg29
I576792
sg30
F0.5789473684210527
sS'loan_advances_fraction_from_payments'
p1814
I0
sS'long_term_incentive_fraction_from_payments'
p1815
F0.2822269864418156
sg33
I247338
sg34
I399393
sg35
F0.2548067383974455
sS'bonus_fraction_from_payments'
p1816
F0.30788398520925336
sg37
I591250
sS'expenses_fraction_from_payments'
p1817
I0
sg39
F0.021739130434782608
ssS'MARTIN AMANDA K'
p1818
(dp1819
g3
I1522
sg4
I85430
sg6
I8211
sS'deferral_payments_fraction_from_payments'
p1820
I0
sS'director_fees_fraction_from_stock'
p1821
I0
sg9
I00
sg10
g5
sg11
S'a..martin@enron.com'
p1822
sg13
I5145434
sS'deferred_income_fraction_from_payments'
p1823
I0
sS'director_fees_fraction_from_payments'
p1824
I0
sS'other_fraction_from_payments'
p1825
I0
sg17
g5
sg18
I477
sg19
g5
sg20
I230
sg21
I2818454
sg22
g5
sS'salary_fraction_from_payments'
p1826
I0
sg24
g5
sg25
I2070306
sg26
I8
sg27
F0.19759877571768816
sg28
I0
sg29
g5
sg30
F0.0
sS'loan_advances_fraction_from_payments'
p1827
I0
sS'long_term_incentive_fraction_from_payments'
p1828
I0
sg33
I349487
sg34
I8407016
sg35
F0.8024012242823119
sS'bonus_fraction_from_payments'
p1829
I0
sg37
I2070306
sS'expenses_fraction_from_payments'
p1830
I0
sg39
F0.005256241787122208
ssS'BUY RICHARD B'
p1831
(dp1832
g3
I3523
sg4
I649584
sg6
g5
sS'deferral_payments_fraction_from_payments'
p1833
F0.21293898439763925
sS'director_fees_fraction_from_stock'
p1834
I0
sg9
I00
sg10
I-694862
sg11
S'rick.buy@enron.com'
p1835
sg13
I769862
sS'deferred_income_fraction_from_payments'
p1836
F-0.2277814856531448
sS'director_fees_fraction_from_payments'
p1837
I0
sS'other_fraction_from_payments'
p1838
F0.13131080023235048
sg17
g5
sg18
I2333
sg19
g5
sg20
I1053
sg21
I400572
sg22
g5
sS'salary_fraction_from_payments'
p1839
F0.1083557007818882
sg24
I900000
sg25
I3444470
sg26
I156
sg27
F0.5938565270133368
sg28
I71
sg29
I901657
sg30
F0.06742640075973409
sS'loan_advances_fraction_from_payments'
p1840
I0
sS'long_term_incentive_fraction_from_payments'
p1841
F0.2523671032635277
sg33
I330546
sg34
I2355702
sg35
F0.40614347298666315
sS'bonus_fraction_from_payments'
p1842
F0.2950274113245944
sg37
I2542813
sS'expenses_fraction_from_payments'
p1843
I0
sg39
F0.04428044280442804
ssS'GRAMM WENDY L'
p1844
(dp1845
g3
g5
sg4
g5
sg6
g5
sS'deferral_payments_fraction_from_payments'
p1846
I0
sS'director_fees_fraction_from_stock'
p1847
I0
sg9
I00
sg10
g5
sg11
g5
sg13
g5
sS'deferred_income_fraction_from_payments'
p1848
I0
sS'director_fees_fraction_from_payments'
p1849
I0
sS'other_fraction_from_payments'
p1850
I0
sg17
g5
sg18
g5
sg19
g5
sg20
g5
sg21
g5
sg22
I119292
sS'salary_fraction_from_payments'
p1851
I0
sg24
g5
sg25
g5
sg26
g5
sg27
I0
sg28
g5
sg29
g5
sg30
I0
sS'loan_advances_fraction_from_payments'
p1852
I0
sS'long_term_incentive_fraction_from_payments'
p1853
I0
sg33
g5
sg34
I119292
sg35
I0
sS'bonus_fraction_from_payments'
p1854
I0
sg37
g5
sS'expenses_fraction_from_payments'
p1855
I0
sg39
I0
ssS'CAUSEY RICHARD A'
p1856
(dp1857
g3
I1892
sg4
g5
sg6
I30674
sS'deferral_payments_fraction_from_payments'
p1858
I0
sS'director_fees_fraction_from_stock'
p1859
I0
sg9
I01
sg10
I-235000
sg11
S'richard.causey@enron.com'
p1860
sg13
I350000
sS'deferred_income_fraction_from_payments'
p1861
F-0.11170486339208217
sS'director_fees_fraction_from_payments'
p1862
I0
sS'other_fraction_from_payments'
p1863
F0.14635476133661762
sg17
g5
sg18
I1585
sg19
g5
sg20
I49
sg21
I307895
sg22
g5
sS'salary_fraction_from_payments'
p1864
F0.1973558745825328
sg24
I1000000
sg25
I2502063
sg26
I58
sg27
F0.5724469155794758
sg28
I12
sg29
I2502063
sg30
F0.24489795918367346
sS'loan_advances_fraction_from_payments'
p1865
I0
sS'long_term_incentive_fraction_from_payments'
p1866
F0.1663689454775692
sg33
I415189
sg34
I1868758
sg35
F0.4275530844205242
sS'bonus_fraction_from_payments'
p1867
F0.47533984422162623
sg37
g5
sS'expenses_fraction_from_payments'
p1868
F0.014580574381654164
sg39
F0.0306553911205074
ssS'TAYLOR MITCHELL S'
p1869
(dp1870
g3
I533
sg4
I227449
sg6
g5
sS'deferral_payments_fraction_from_payments'
p1871
I0
sS'director_fees_fraction_from_stock'
p1872
I0
sg9
I00
sg10
g5
sg11
S'mitchell.taylor@enron.com'
p1873
sg13
g5
sS'deferred_income_fraction_from_payments'
p1874
I0
sS'director_fees_fraction_from_payments'
p1875
I0
sS'other_fraction_from_payments'
p1876
I0
sg17
g5
sg18
I300
sg19
g5
sg20
I29
sg21
g5
sg22
g5
sS'salary_fraction_from_payments'
p1877
I0
sg24
I600000
sg25
I3745048
sg26
I0
sg27
F0.7741363632511327
sg28
I0
sg29
I563798
sg30
F0.0
sS'loan_advances_fraction_from_payments'
p1878
I0
sS'long_term_incentive_fraction_from_payments'
p1879
I0
sg33
I265214
sg34
I1092663
sg35
F0.2258636367488674
sS'bonus_fraction_from_payments'
p1880
I0
sg37
I3181250
sS'expenses_fraction_from_payments'
p1881
I0
sg39
F0.0
ssS'DONAHUE JR JEFFREY M'
p1882
(dp1883
g3
I865
sg4
g5
sg6
I96268
sS'deferral_payments_fraction_from_payments'
p1884
I0
sS'director_fees_fraction_from_stock'
p1885
I0
sg9
I00
sg10
I-300000
sg11
S'jeff.donahue@enron.com'
p1886
sg13
g5
sS'deferred_income_fraction_from_payments'
p1887
F-0.2551541130843029
sS'director_fees_fraction_from_payments'
p1888
I0
sS'other_fraction_from_payments'
p1889
F0.0007578077158603796
sg17
g5
sg18
I772
sg19
g5
sg20
I22
sg21
I891
sg22
g5
sS'salary_fraction_from_payments'
p1890
F0.2369539701979996
sg24
I800000
sg25
I1080988
sg26
I188
sg27
F0.5524410910347168
sg28
I11
sg29
I315068
sg30
F0.5
sS'loan_advances_fraction_from_payments'
p1891
I0
sS'long_term_incentive_fraction_from_payments'
p1892
I0
sg33
I278601
sg34
I875760
sg35
F0.4475589089652832
sS'bonus_fraction_from_payments'
p1893
F0.6804109682248077
sg37
I765920
sS'expenses_fraction_from_payments'
p1894
F0.08187725386133224
sg39
F0.21734104046242775
ssS'GLISAN JR BEN F'
p1895
(dp1896
g3
I873
sg4
g5
sg6
I125978
sS'deferral_payments_fraction_from_payments'
p1897
I0
sS'director_fees_fraction_from_stock'
p1898
I0
sg9
I01
sg10
g5
sg11
S'ben.glisan@enron.com'
p1899
sg13
I71023
sS'deferred_income_fraction_from_payments'
p1900
I0
sS'director_fees_fraction_from_payments'
p1901
I0
sS'other_fraction_from_payments'
p1902
I0
sg17
g5
sg18
I874
sg19
g5
sg20
I16
sg21
I200308
sg22
g5
sS'salary_fraction_from_payments'
p1903
I0
sg24
I600000
sg25
I778546
sg26
I52
sg27
F0.3796248348229741
sg28
I6
sg29
I393818
sg30
F0.375
sS'loan_advances_fraction_from_payments'
p1904
I0
sS'long_term_incentive_fraction_from_payments'
p1905
I0
sg33
I274975
sg34
I1272284
sg35
F0.6203751651770258
sS'bonus_fraction_from_payments'
p1906
I0
sg37
I384728
sS'expenses_fraction_from_payments'
p1907
I0
sg39
F0.05956471935853379
ss.